

Microchip MPLAB XC8 Assembler V2.36 build 20220127204148 
                                                                                               Fri Jan 13 15:06:49 2023

Microchip MPLAB XC8 C Compiler v2.36 (Free license) build 20220127204148 Og9 
     1                           	processor	18F14Q40
     2                           	fnconf	rparam,??,?,0
     3                           	pagewidth 120
     4                           	opt	flic
     5                           	psect	mediumconst,global,reloc=2,class=MEDIUMCONST,delta=1,noexec
     6                           	psect	cinit,global,reloc=2,class=CODE,delta=1
     7                           	psect	bssCOMRAM,global,class=COMRAM,space=1,delta=1,lowdata,noexec
     8                           	psect	bssBANK5,global,class=BANK5,space=1,delta=1,lowdata,noexec
     9                           	psect	bssBANK6,global,class=BANK6,space=1,delta=1,lowdata,noexec
    10                           	psect	cstackBANK5,global,class=BANK5,space=1,delta=1,lowdata,noexec
    11                           	psect	cstackCOMRAM,global,class=COMRAM,space=1,delta=1,lowdata,noexec
    12                           	psect	text0,global,reloc=2,class=CODE,delta=1
    13                           	psect	text1,global,reloc=2,class=CODE,delta=1
    14                           	psect	text2,global,reloc=2,class=CODE,delta=1
    15                           	psect	text3,global,reloc=2,class=CODE,delta=1
    16                           	psect	text4,global,reloc=2,class=CODE,delta=1
    17                           	psect	text5,global,reloc=2,class=CODE,delta=1
    18                           	psect	text6,global,reloc=2,class=CODE,delta=1
    19                           	psect	text7,global,reloc=2,class=CODE,delta=1
    20                           	psect	text8,global,reloc=2,class=CODE,delta=1
    21                           	psect	text9,global,reloc=2,class=CODE,delta=1
    22                           	psect	text10,global,reloc=2,class=CODE,delta=1,group=2
    23                           	psect	text11,global,reloc=2,class=CODE,delta=1,group=2
    24                           	psect	text12,global,reloc=2,class=CODE,delta=1
    25                           	psect	text13,global,reloc=2,class=CODE,delta=1
    26                           	psect	text14,global,reloc=2,class=CODE,delta=1
    27                           	psect	text15,global,reloc=2,class=CODE,delta=1
    28                           	psect	text16,global,reloc=2,class=CODE,delta=1
    29                           	psect	text17,global,reloc=2,class=CODE,delta=1
    30                           	psect	text18,global,reloc=2,class=CODE,delta=1
    31                           	psect	text19,global,reloc=2,class=CODE,delta=1
    32                           	psect	text20,global,reloc=2,class=CODE,delta=1
    33                           	psect	text21,global,reloc=2,class=CODE,delta=1
    34                           	psect	text22,global,reloc=2,class=CODE,delta=1
    35                           	psect	text23,global,reloc=2,class=CODE,delta=1
    36                           	psect	text24,global,reloc=2,class=CODE,delta=1
    37                           	psect	text25,global,reloc=2,class=CODE,delta=1
    38                           	psect	text26,global,reloc=2,class=CODE,delta=1
    39                           	psect	text27,global,reloc=2,class=CODE,delta=1
    40                           	psect	text28,global,reloc=2,class=CODE,delta=1
    41                           	psect	text29,global,reloc=2,class=CODE,delta=1
    42                           	psect	text30,global,reloc=2,class=CODE,delta=1,group=3
    43                           	psect	text31,global,reloc=2,class=CODE,delta=1,group=1
    44                           	psect	text32,global,reloc=2,class=CODE,delta=1,group=1
    45                           	psect	text33,global,reloc=2,class=CODE,delta=1,group=1
    46                           	psect	text34,global,reloc=2,class=CODE,delta=1,group=1
    47                           	psect	text35,global,reloc=2,class=CODE,delta=1,group=3
    48                           	psect	text36,global,reloc=2,class=CODE,delta=1,group=3
    49                           	psect	text37,global,reloc=2,class=CODE,delta=1,group=3
    50                           	psect	text38,global,reloc=2,class=CODE,delta=1
    51                           	psect	text39,global,reloc=2,class=CODE,delta=1,group=2
    52                           	psect	text40,global,reloc=2,class=CODE,delta=1,group=2
    53                           	psect	text41,global,reloc=4,class=CODE,delta=1
    54                           	psect	text42,global,reloc=4,class=CODE,delta=1
    55                           	psect	text43,global,reloc=4,class=CODE,delta=1
    56                           	psect	text44,global,reloc=2,class=CODE,delta=1
    57                           	psect	text45,global,reloc=2,class=CODE,delta=1,group=3
    58                           	psect	text46,global,reloc=2,class=CODE,delta=1,group=3
    59                           	psect	text47,global,reloc=4,class=CODE,delta=1
    60                           	psect	text48,global,reloc=2,class=CODE,delta=1
    61                           	psect	text49,global,reloc=2,class=CODE,delta=1
    62                           	psect	ivt0x8,global,reloc=2,class=CODE,delta=1,noexec,keep,optim=
    63                           	psect	intsave_regs,global,class=BIGRAM,space=1,delta=1,noexec
    64                           	psect	rparam,global,class=COMRAM,space=1,delta=1,noexec
    65                           	psect	idloc,global,abs,ovrld,class=IDLOC,space=5,delta=1,noexec
    66                           	psect	config,global,abs,ovrld,class=CONFIG,space=4,delta=1,noexec
    67  0000                     
    68                           ; Generated 17/06/2022 GMT
    69                           ; 
    70                           ; Copyright © 2022, Microchip Technology Inc. and its subsidiaries ("Microchip")
    71                           ; All rights reserved.
    72                           ; 
    73                           ; This software is developed by Microchip Technology Inc. and its subsidiaries ("Microch
      +                          ip").
    74                           ; 
    75                           ; Redistribution and use in source and binary forms, with or without modification, are
    76                           ; permitted provided that the following conditions are met:
    77                           ; 
    78                           ;     1. Redistributions of source code must retain the above copyright notice, this lis
      +                          t of
    79                           ;        conditions and the following disclaimer.
    80                           ; 
    81                           ;     2. Redistributions in binary form must reproduce the above copyright notice, this 
      +                          list
    82                           ;        of conditions and the following disclaimer in the documentation and/or other
    83                           ;        materials provided with the distribution. Publication is not required when
    84                           ;        this file is used in an embedded application.
    85                           ; 
    86                           ;     3. Microchip's name may not be used to endorse or promote products derived from th
      +                          is
    87                           ;        software without specific prior written permission.
    88                           ; 
    89                           ; THIS SOFTWARE IS PROVIDED BY MICROCHIP "AS IS" AND ANY EXPRESS OR IMPLIED WARRANTIES,
    90                           ; INCLUDING, BUT NOT LIMITED TO, THE IMPLIED WARRANTIES OF MERCHANTABILITY AND FITNESS F
      +                          OR
    91                           ; PURPOSE ARE DISCLAIMED.  IN NO EVENT SHALL MICROCHIP BE LIABLE FOR ANY DIRECT, INDIREC
      +                          T,
    92                           ; INCIDENTAL, SPECIAL, EXEMPLARY, OR CONSEQUENTIAL DAMAGES (INCLUDING BUT NOT LIMITED TO
    93                           ; PROCUREMENT OF SUBSTITUTE GOODS OR SERVICES; LOSS OF USE, DATA OR PROFITS; OR BUSINESS
    94                           ; INTERRUPTION) HOWSOEVER CAUSED AND ON ANY THEORY OF LIABILITY, WHETHER IN CONTRACT, ST
      +                          RICT
    95                           ; LIABILITY, OR TORT (INCLUDING NEGLIGENCE OR OTHERWISE) ARISING IN ANY WAY OUT OF THE U
      +                          SE OF
    96                           ; THIS SOFTWARE, EVEN IF ADVISED OF THE POSSIBILITY OF SUCH DAMAGE.
    97                           ; 
    98                           ; 
    99                           ; Code-generator required, PIC18F14Q40 Definitions
   100                           ; 
   101                           ; SFR Addresses
   102  0000                     _CLCnPOLbits	set	215
   103  0000                     _CLCnSEL0bits	set	216
   104  0000                     _CLCnCONbits	set	214
   105  0000                     _MD1SRCbits	set	108
   106  0000                     _MD1CARLbits	set	109
   107  0000                     _MD1CARHbits	set	110
   108  0000                     _MD1CON1bits	set	107
   109  0000                     _ODCONC	set	1042
   110  0000                     _ODCONB	set	1034
   111  0000                     _ODCONA	set	1026
   112  0000                     _SLRCONC	set	1043
   113  0000                     _SLRCONB	set	1035
   114  0000                     _SLRCONA	set	1027
   115  0000                     _WPUC	set	1041
   116  0000                     _WPUB	set	1033
   117  0000                     _WPUA	set	1025
   118  0000                     _PMD2	set	101
   119  0000                     _PMD1	set	100
   120  0000                     _OSCTUNE	set	176
   121  0000                     _OSCFRQ	set	177
   122  0000                     _OSCEN	set	179
   123  0000                     _NVMLOCK	set	66
   124  0000                     _PMD4bits	set	103
   125  0000                     _PMD2bits	set	101
   126  0000                     _PMD3	set	102
   127  0000                     _U1ERRIRbits	set	690
   128  0000                     _U1FIFObits	set	688
   129  0000                     _U1CON1bits	set	684
   130  0000                     _U1CON2bits	set	685
   131  0000                     _U1CON0bits	set	683
   132  0000                     _IVTLOCKbits	set	1113
   133  0000                     _WPUAbits	set	1025
   134  0000                     _GIE	set	9911
   135  0000                     _NVMADR	set	67
   136  0000                     _CLKRCONbits	set	57
   137  0000                     _NVMCON0bits	set	64
   138  0000                     _NVMCON1bits	set	65
   139  0000                     _LATAbits	set	1214
   140  0000                     _PORTAbits	set	1230
   141  0000                     _INTCON0bits	set	1238
   142  0000                     _PORTC	set	1232
   143  0000                     _PORTBbits	set	1231
   144  0000                     _LATC	set	1216
   145  0000                     _TRISAbits	set	1222
   146  0000                     _PMD0bits	set	99
   147  0000                     _PMD3bits	set	102
   148  0000                     _NVMDATL	set	70
   149  0000                     _MD1CON0bits	set	106
   150  0000                     _PMD5	set	104
   151  0000                     _PMD4	set	103
   152  0000                     _ACTCON	set	172
   153  0000                     _OSCCON1	set	173
   154  0000                     _RA0PPS	set	513
   155  0000                     _PIE4bits	set	1196
   156  0000                     _PIE5bits	set	1197
   157  0000                     _PIR0bits	set	1203
   158  0000                     _PIR1bits	set	1204
   159  0000                     _TRISC	set	1224
   160  0000                     _TRISBbits	set	1223
   161  0000                     _RA4PPS	set	517
   162  0000                     _INT0PPS	set	574
   163  0000                     _U1RXPPS	set	626
   164  0000                     _U1RXB	set	673
   165  0000                     _U1TXB	set	675
   166  0000                     _U1CON0	set	683
   167  0000                     _IPR0bits	set	871
   168  0000                     _IPR1bits	set	872
   169  0000                     _IPR4bits	set	875
   170  0000                     _U1ERRIE	set	691
   171  0000                     _U1ERRIR	set	690
   172  0000                     _U1UIR	set	689
   173  0000                     _U1FIFO	set	688
   174  0000                     _U1BRGH	set	687
   175  0000                     _U1BRGL	set	686
   176  0000                     _U1CON2	set	685
   177  0000                     _U1CON1	set	684
   178  0000                     _IPR5bits	set	876
   179  0000                     _ANSELA	set	1024
   180  0000                     _INLVLA	set	1028
   181  0000                     _OSCCON3	set	175
   182  0000                     _CLCSELECTbits	set	213
   183  0000                     _ANSELB	set	1032
   184  0000                     _INLVLB	set	1036
   185  0000                     _ANSELC	set	1040
   186  0000                     _INLVLC	set	1044
   187  0000                     _IVTLOCK	set	1113
   188  0000                     _PIE1bits	set	1193
   189  0000                     _CLCIN0PPS	set	609
   190  0000                     _PIR5bits	set	1208
   191  0000                     _CLCIN1PPS	set	610
   192  0000                     _IVTBASEL	set	1117
   193  0000                     _IVTBASEH	set	1118
   194  0000                     _IVTBASEU	set	1119
   195  0000                     _PIE0bits	set	1192
   196  0000                     _CLKRCLK	set	58
   197  0000                     _CLCnGLS3bits	set	223
   198  0000                     _CLCnGLS2bits	set	222
   199  0000                     _CLCnGLS1bits	set	221
   200  0000                     _CLCnGLS0bits	set	220
   201  0000                     _CLCnSEL3bits	set	219
   202  0000                     _CLCnSEL2bits	set	218
   203  0000                     _CLCnSEL1bits	set	217
   204                           
   205                           	psect	mediumconst
   206  003D1E                     __pmediumconst:
   207                           	callstack 0
   208  003D1E  00                 	db	0
   209  003D1F                     STR_22:
   210                           
   211                           ; BSR set to: 2
   212  003D1F  0D                 	db	13
   213  003D20  20                 	db	32
   214  003D21  20                 	db	32
   215  003D22  20                 	db	32
   216  003D23  20                 	db	32
   217  003D24  20                 	db	32
   218  003D25  43                 	db	67	;'C'
   219  003D26  52                 	db	82	;'R'
   220  003D27  41                 	db	65	;'A'
   221  003D28  42                 	db	66	;'B'
   222  003D29  20                 	db	32
   223  003D2A  41                 	db	65	;'A'
   224  003D2B  50                 	db	80	;'P'
   225  003D2C  50                 	db	80	;'P'
   226  003D2D  4C                 	db	76	;'L'
   227  003D2E  45                 	db	69	;'E'
   228  003D2F  20                 	db	32
   229  003D30  42                 	db	66	;'B'
   230  003D31  49                 	db	73	;'I'
   231  003D32  4F                 	db	79	;'O'
   232  003D33  53                 	db	83	;'S'
   233  003D34  20                 	db	32
   234  003D35  56                 	db	86	;'V'
   235  003D36  25                 	db	37
   236  003D37  75                 	db	117	;'u'
   237  003D38  2E                 	db	46
   238  003D39  25                 	db	37
   239  003D3A  75                 	db	117	;'u'
   240  003D3B  20                 	db	32
   241  003D3C  00                 	db	0
   242  003D3D                     STR_32:
   243                           
   244                           ; BSR set to: 2
   245  003D3D  0D                 	db	13
   246  003D3E  09                 	db	9
   247  003D3F  50                 	db	80	;'P'
   248  003D40  52                 	db	82	;'R'
   249  003D41  4F                 	db	79	;'O'
   250  003D42  43                 	db	67	;'C'
   251  003D43  45                 	db	69	;'E'
   252  003D44  53                 	db	83	;'S'
   253  003D45  53                 	db	83	;'S'
   254  003D46  4F                 	db	79	;'O'
   255  003D47  52                 	db	82	;'R'
   256  003D48  20                 	db	32
   257  003D49  53                 	db	83	;'S'
   258  003D4A  50                 	db	80	;'P'
   259  003D4B  45                 	db	69	;'E'
   260  003D4C  45                 	db	69	;'E'
   261  003D4D  44                 	db	68	;'D'
   262  003D4E  20                 	db	32
   263  003D4F  3A                 	db	58	;':'
   264  003D50  20                 	db	32
   265  003D51  25                 	db	37
   266  003D52  75                 	db	117	;'u'
   267  003D53  20                 	db	32
   268  003D54  4D                 	db	77	;'M'
   269  003D55  48                 	db	72	;'H'
   270  003D56  7A                 	db	122	;'z'
   271  003D57  0D                 	db	13
   272  003D58  00                 	db	0
   273  003D59                     STR_15:
   274                           
   275                           ; BSR set to: 2
   276  003D59  0D                 	db	13
   277  003D5A  20                 	db	32
   278  003D5B  20                 	db	32
   279  003D5C  20                 	db	32
   280  003D5D  20                 	db	32
   281  003D5E  20                 	db	32
   282  003D5F  23                 	db	35
   283  003D60  23                 	db	35
   284  003D61  23                 	db	35
   285  003D62  23                 	db	35
   286  003D63  23                 	db	35
   287  003D64  23                 	db	35
   288  003D65  23                 	db	35
   289  003D66  23                 	db	35
   290  003D67  23                 	db	35
   291  003D68  23                 	db	35
   292  003D69  23                 	db	35
   293  003D6A  23                 	db	35
   294  003D6B  23                 	db	35
   295  003D6C  23                 	db	35
   296  003D6D  23                 	db	35
   297  003D6E  23                 	db	35
   298  003D6F  23                 	db	35
   299  003D70  23                 	db	35
   300  003D71  23                 	db	35
   301  003D72  23                 	db	35
   302  003D73  23                 	db	35
   303  003D74  00                 	db	0
   304  003D75                     STR_18:
   305                           
   306                           ; BSR set to: 2
   307  003D75  0D                 	db	13
   308  003D76  20                 	db	32
   309  003D77  20                 	db	32
   310  003D78  20                 	db	32
   311  003D79  20                 	db	32
   312  003D7A  20                 	db	32
   313  003D7B  20                 	db	32
   314  003D7C  20                 	db	32
   315  003D7D  23                 	db	35
   316  003D7E  23                 	db	35
   317  003D7F  23                 	db	35
   318  003D80  23                 	db	35
   319  003D81  23                 	db	35
   320  003D82  23                 	db	35
   321  003D83  23                 	db	35
   322  003D84  23                 	db	35
   323  003D85  23                 	db	35
   324  003D86  23                 	db	35
   325  003D87  23                 	db	35
   326  003D88  23                 	db	35
   327  003D89  23                 	db	35
   328  003D8A  23                 	db	35
   329  003D8B  23                 	db	35
   330  003D8C  23                 	db	35
   331  003D8D  23                 	db	35
   332  003D8E  23                 	db	35
   333  003D8F  00                 	db	0
   334  003D90                     STR_8:
   335                           
   336                           ; BSR set to: 2
   337  003D90  0D                 	db	13
   338  003D91  20                 	db	32
   339  003D92  20                 	db	32
   340  003D93  20                 	db	32
   341  003D94  20                 	db	32
   342  003D95  20                 	db	32
   343  003D96  20                 	db	32
   344  003D97  23                 	db	35
   345  003D98  23                 	db	35
   346  003D99  23                 	db	35
   347  003D9A  23                 	db	35
   348  003D9B  23                 	db	35
   349  003D9C  23                 	db	35
   350  003D9D  23                 	db	35
   351  003D9E  23                 	db	35
   352  003D9F  23                 	db	35
   353  003DA0  23                 	db	35
   354  003DA1  23                 	db	35
   355  003DA2  23                 	db	35
   356  003DA3  23                 	db	35
   357  003DA4  23                 	db	35
   358  003DA5  23                 	db	35
   359  003DA6  23                 	db	35
   360  003DA7  23                 	db	35
   361  003DA8  23                 	db	35
   362  003DA9  23                 	db	35
   363  003DAA  00                 	db	0
   364  003DAB                     STR_9:
   365                           
   366                           ; BSR set to: 2
   367  003DAB  0D                 	db	13
   368  003DAC  20                 	db	32
   369  003DAD  20                 	db	32
   370  003DAE  20                 	db	32
   371  003DAF  20                 	db	32
   372  003DB0  20                 	db	32
   373  003DB1  23                 	db	35
   374  003DB2  23                 	db	35
   375  003DB3  23                 	db	35
   376  003DB4  23                 	db	35
   377  003DB5  23                 	db	35
   378  003DB6  23                 	db	35
   379  003DB7  23                 	db	35
   380  003DB8  23                 	db	35
   381  003DB9  23                 	db	35
   382  003DBA  23                 	db	35
   383  003DBB  23                 	db	35
   384  003DBC  23                 	db	35
   385  003DBD  23                 	db	35
   386  003DBE  23                 	db	35
   387  003DBF  23                 	db	35
   388  003DC0  23                 	db	35
   389  003DC1  23                 	db	35
   390  003DC2  23                 	db	35
   391  003DC3  23                 	db	35
   392  003DC4  23                 	db	35
   393  003DC5  00                 	db	0
   394  003DC6                     STR_19:
   395                           
   396                           ; BSR set to: 2
   397  003DC6  0D                 	db	13
   398  003DC7  20                 	db	32
   399  003DC8  20                 	db	32
   400  003DC9  20                 	db	32
   401  003DCA  20                 	db	32
   402  003DCB  20                 	db	32
   403  003DCC  20                 	db	32
   404  003DCD  20                 	db	32
   405  003DCE  20                 	db	32
   406  003DCF  23                 	db	35
   407  003DD0  23                 	db	35
   408  003DD1  23                 	db	35
   409  003DD2  23                 	db	35
   410  003DD3  23                 	db	35
   411  003DD4  23                 	db	35
   412  003DD5  23                 	db	35
   413  003DD6  23                 	db	35
   414  003DD7  23                 	db	35
   415  003DD8  23                 	db	35
   416  003DD9  23                 	db	35
   417  003DDA  23                 	db	35
   418  003DDB  23                 	db	35
   419  003DDC  23                 	db	35
   420  003DDD  23                 	db	35
   421  003DDE  23                 	db	35
   422  003DDF  00                 	db	0
   423  003DE0                     STR_10:
   424                           
   425                           ; BSR set to: 2
   426  003DE0  0D                 	db	13
   427  003DE1  20                 	db	32
   428  003DE2  20                 	db	32
   429  003DE3  20                 	db	32
   430  003DE4  20                 	db	32
   431  003DE5  20                 	db	32
   432  003DE6  23                 	db	35
   433  003DE7  23                 	db	35
   434  003DE8  23                 	db	35
   435  003DE9  23                 	db	35
   436  003DEA  23                 	db	35
   437  003DEB  23                 	db	35
   438  003DEC  23                 	db	35
   439  003DED  23                 	db	35
   440  003DEE  23                 	db	35
   441  003DEF  23                 	db	35
   442  003DF0  23                 	db	35
   443  003DF1  23                 	db	35
   444  003DF2  23                 	db	35
   445  003DF3  23                 	db	35
   446  003DF4  23                 	db	35
   447  003DF5  23                 	db	35
   448  003DF6  23                 	db	35
   449  003DF7  23                 	db	35
   450  003DF8  23                 	db	35
   451  003DF9  00                 	db	0
   452  003DFA                     STR_14:
   453                           
   454                           ; BSR set to: 2
   455  003DFA  0D                 	db	13
   456  003DFB  20                 	db	32
   457  003DFC  20                 	db	32
   458  003DFD  20                 	db	32
   459  003DFE  20                 	db	32
   460  003DFF  23                 	db	35
   461  003E00  23                 	db	35
   462  003E01  23                 	db	35
   463  003E02  23                 	db	35
   464  003E03  23                 	db	35
   465  003E04  23                 	db	35
   466  003E05  23                 	db	35
   467  003E06  23                 	db	35
   468  003E07  23                 	db	35
   469  003E08  23                 	db	35
   470  003E09  23                 	db	35
   471  003E0A  23                 	db	35
   472  003E0B  23                 	db	35
   473  003E0C  23                 	db	35
   474  003E0D  23                 	db	35
   475  003E0E  23                 	db	35
   476  003E0F  23                 	db	35
   477  003E10  23                 	db	35
   478  003E11  23                 	db	35
   479  003E12  23                 	db	35
   480  003E13  00                 	db	0
   481  003E14                     STR_7:
   482                           
   483                           ; BSR set to: 2
   484  003E14  0D                 	db	13
   485  003E15  20                 	db	32
   486  003E16  20                 	db	32
   487  003E17  20                 	db	32
   488  003E18  20                 	db	32
   489  003E19  20                 	db	32
   490  003E1A  20                 	db	32
   491  003E1B  20                 	db	32
   492  003E1C  20                 	db	32
   493  003E1D  23                 	db	35
   494  003E1E  23                 	db	35
   495  003E1F  23                 	db	35
   496  003E20  23                 	db	35
   497  003E21  23                 	db	35
   498  003E22  23                 	db	35
   499  003E23  20                 	db	32
   500  003E24  20                 	db	32
   501  003E25  20                 	db	32
   502  003E26  23                 	db	35
   503  003E27  23                 	db	35
   504  003E28  23                 	db	35
   505  003E29  23                 	db	35
   506  003E2A  23                 	db	35
   507  003E2B  23                 	db	35
   508  003E2C  00                 	db	0
   509  003E2D                     STR_11:
   510                           
   511                           ; BSR set to: 2
   512  003E2D  0D                 	db	13
   513  003E2E  20                 	db	32
   514  003E2F  20                 	db	32
   515  003E30  20                 	db	32
   516  003E31  20                 	db	32
   517  003E32  23                 	db	35
   518  003E33  23                 	db	35
   519  003E34  23                 	db	35
   520  003E35  23                 	db	35
   521  003E36  23                 	db	35
   522  003E37  23                 	db	35
   523  003E38  23                 	db	35
   524  003E39  23                 	db	35
   525  003E3A  23                 	db	35
   526  003E3B  23                 	db	35
   527  003E3C  23                 	db	35
   528  003E3D  23                 	db	35
   529  003E3E  23                 	db	35
   530  003E3F  23                 	db	35
   531  003E40  23                 	db	35
   532  003E41  23                 	db	35
   533  003E42  23                 	db	35
   534  003E43  23                 	db	35
   535  003E44  23                 	db	35
   536  003E45  00                 	db	0
   537  003E46                     STR_20:
   538                           
   539                           ; BSR set to: 2
   540  003E46  0D                 	db	13
   541  003E47  20                 	db	32
   542  003E48  20                 	db	32
   543  003E49  20                 	db	32
   544  003E4A  20                 	db	32
   545  003E4B  20                 	db	32
   546  003E4C  20                 	db	32
   547  003E4D  20                 	db	32
   548  003E4E  20                 	db	32
   549  003E4F  20                 	db	32
   550  003E50  23                 	db	35
   551  003E51  23                 	db	35
   552  003E52  23                 	db	35
   553  003E53  23                 	db	35
   554  003E54  23                 	db	35
   555  003E55  20                 	db	32
   556  003E56  20                 	db	32
   557  003E57  20                 	db	32
   558  003E58  20                 	db	32
   559  003E59  23                 	db	35
   560  003E5A  23                 	db	35
   561  003E5B  23                 	db	35
   562  003E5C  23                 	db	35
   563  003E5D  00                 	db	0
   564  003E5E                     STR_28:
   565                           
   566                           ; BSR set to: 2
   567  003E5E  0D                 	db	13
   568  003E5F  09                 	db	9
   569  003E60  31                 	db	49	;'1'
   570  003E61  20                 	db	32
   571  003E62  2D                 	db	45
   572  003E63  20                 	db	32
   573  003E64  50                 	db	80	;'P'
   574  003E65  52                 	db	82	;'R'
   575  003E66  4F                 	db	79	;'O'
   576  003E67  43                 	db	67	;'C'
   577  003E68  45                 	db	69	;'E'
   578  003E69  53                 	db	83	;'S'
   579  003E6A  53                 	db	83	;'S'
   580  003E6B  4F                 	db	79	;'O'
   581  003E6C  52                 	db	82	;'R'
   582  003E6D  20                 	db	32
   583  003E6E  53                 	db	83	;'S'
   584  003E6F  50                 	db	80	;'P'
   585  003E70  45                 	db	69	;'E'
   586  003E71  45                 	db	69	;'E'
   587  003E72  44                 	db	68	;'D'
   588  003E73  0D                 	db	13
   589  003E74  00                 	db	0
   590  003E75                     STR_29:
   591                           
   592                           ; BSR set to: 2
   593  003E75  0D                 	db	13
   594  003E76  09                 	db	9
   595  003E77  32                 	db	50	;'2'
   596  003E78  20                 	db	32
   597  003E79  2D                 	db	45
   598  003E7A  20                 	db	32
   599  003E7B  55                 	db	85	;'U'
   600  003E7C  41                 	db	65	;'A'
   601  003E7D  52                 	db	82	;'R'
   602  003E7E  54                 	db	84	;'T'
   603  003E7F  20                 	db	32
   604  003E80  42                 	db	66	;'B'
   605  003E81  41                 	db	65	;'A'
   606  003E82  55                 	db	85	;'U'
   607  003E83  44                 	db	68	;'D'
   608  003E84  20                 	db	32
   609  003E85  52                 	db	82	;'R'
   610  003E86  41                 	db	65	;'A'
   611  003E87  54                 	db	84	;'T'
   612  003E88  45                 	db	69	;'E'
   613  003E89  0D                 	db	13
   614  003E8A  00                 	db	0
   615  003E8B                     STR_3:
   616                           
   617                           ; BSR set to: 2
   618  003E8B  0D                 	db	13
   619  003E8C  20                 	db	32
   620  003E8D  20                 	db	32
   621  003E8E  20                 	db	32
   622  003E8F  20                 	db	32
   623  003E90  20                 	db	32
   624  003E91  20                 	db	32
   625  003E92  20                 	db	32
   626  003E93  20                 	db	32
   627  003E94  20                 	db	32
   628  003E95  20                 	db	32
   629  003E96  20                 	db	32
   630  003E97  20                 	db	32
   631  003E98  20                 	db	32
   632  003E99  20                 	db	32
   633  003E9A  20                 	db	32
   634  003E9B  20                 	db	32
   635  003E9C  20                 	db	32
   636  003E9D  20                 	db	32
   637  003E9E  20                 	db	32
   638  003E9F  23                 	db	35
   639  003EA0  00                 	db	0
   640  003EA1                     STR_4:
   641                           
   642                           ; BSR set to: 2
   643  003EA1  0D                 	db	13
   644  003EA2  20                 	db	32
   645  003EA3  20                 	db	32
   646  003EA4  20                 	db	32
   647  003EA5  20                 	db	32
   648  003EA6  20                 	db	32
   649  003EA7  20                 	db	32
   650  003EA8  20                 	db	32
   651  003EA9  20                 	db	32
   652  003EAA  20                 	db	32
   653  003EAB  20                 	db	32
   654  003EAC  20                 	db	32
   655  003EAD  20                 	db	32
   656  003EAE  20                 	db	32
   657  003EAF  20                 	db	32
   658  003EB0  20                 	db	32
   659  003EB1  20                 	db	32
   660  003EB2  20                 	db	32
   661  003EB3  23                 	db	35
   662  003EB4  23                 	db	35
   663  003EB5  23                 	db	35
   664  003EB6  00                 	db	0
   665  003EB7                     STR_5:
   666                           
   667                           ; BSR set to: 2
   668  003EB7  0D                 	db	13
   669  003EB8  20                 	db	32
   670  003EB9  20                 	db	32
   671  003EBA  20                 	db	32
   672  003EBB  20                 	db	32
   673  003EBC  20                 	db	32
   674  003EBD  20                 	db	32
   675  003EBE  20                 	db	32
   676  003EBF  20                 	db	32
   677  003EC0  20                 	db	32
   678  003EC1  20                 	db	32
   679  003EC2  20                 	db	32
   680  003EC3  20                 	db	32
   681  003EC4  20                 	db	32
   682  003EC5  20                 	db	32
   683  003EC6  20                 	db	32
   684  003EC7  23                 	db	35
   685  003EC8  23                 	db	35
   686  003EC9  23                 	db	35
   687  003ECA  23                 	db	35
   688  003ECB  00                 	db	0
   689  003ECC                     STR_37:
   690                           
   691                           ; BSR set to: 2
   692  003ECC  0D                 	db	13
   693  003ECD  09                 	db	9
   694  003ECE  42                 	db	66	;'B'
   695  003ECF  41                 	db	65	;'A'
   696  003ED0  55                 	db	85	;'U'
   697  003ED1  44                 	db	68	;'D'
   698  003ED2  20                 	db	32
   699  003ED3  52                 	db	82	;'R'
   700  003ED4  41                 	db	65	;'A'
   701  003ED5  54                 	db	84	;'T'
   702  003ED6  45                 	db	69	;'E'
   703  003ED7  20                 	db	32
   704  003ED8  3A                 	db	58	;':'
   705  003ED9  20                 	db	32
   706  003EDA  25                 	db	37
   707  003EDB  75                 	db	117	;'u'
   708  003EDC  30                 	db	48	;'0'
   709  003EDD  30                 	db	48	;'0'
   710  003EDE  0D                 	db	13
   711  003EDF  00                 	db	0
   712  003EE0                     STR_30:
   713                           
   714                           ; BSR set to: 2
   715  003EE0  0D                 	db	13
   716  003EE1  09                 	db	9
   717  003EE2  33                 	db	51	;'3'
   718  003EE3  20                 	db	32
   719  003EE4  2D                 	db	45
   720  003EE5  20                 	db	32
   721  003EE6  54                 	db	84	;'T'
   722  003EE7  45                 	db	69	;'E'
   723  003EE8  58                 	db	88	;'X'
   724  003EE9  54                 	db	84	;'T'
   725  003EEA  20                 	db	32
   726  003EEB  43                 	db	67	;'C'
   727  003EEC  4F                 	db	79	;'O'
   728  003EED  4C                 	db	76	;'L'
   729  003EEE  4F                 	db	79	;'O'
   730  003EEF  55                 	db	85	;'U'
   731  003EF0  52                 	db	82	;'R'
   732  003EF1  0D                 	db	13
   733  003EF2  00                 	db	0
   734  003EF3                     STR_6:
   735                           
   736                           ; BSR set to: 2
   737  003EF3  0D                 	db	13
   738  003EF4  20                 	db	32
   739  003EF5  20                 	db	32
   740  003EF6  20                 	db	32
   741  003EF7  20                 	db	32
   742  003EF8  20                 	db	32
   743  003EF9  20                 	db	32
   744  003EFA  20                 	db	32
   745  003EFB  20                 	db	32
   746  003EFC  20                 	db	32
   747  003EFD  20                 	db	32
   748  003EFE  20                 	db	32
   749  003EFF  20                 	db	32
   750  003F00  20                 	db	32
   751  003F01  20                 	db	32
   752  003F02  20                 	db	32
   753  003F03  23                 	db	35
   754  003F04  23                 	db	35
   755  003F05  00                 	db	0
   756  003F06                     STR_43:
   757                           
   758                           ; BSR set to: 2
   759  003F06  0D                 	db	13
   760  003F07  09                 	db	9
   761  003F08  54                 	db	84	;'T'
   762  003F09  45                 	db	69	;'E'
   763  003F0A  58                 	db	88	;'X'
   764  003F0B  54                 	db	84	;'T'
   765  003F0C  20                 	db	32
   766  003F0D  43                 	db	67	;'C'
   767  003F0E  4F                 	db	79	;'O'
   768  003F0F  4C                 	db	76	;'L'
   769  003F10  4F                 	db	79	;'O'
   770  003F11  55                 	db	85	;'U'
   771  003F12  52                 	db	82	;'R'
   772  003F13  20                 	db	32
   773  003F14  3A                 	db	58	;':'
   774  003F15  20                 	db	32
   775  003F16  00                 	db	0
   776  003F17                     STR_31:
   777                           
   778                           ; BSR set to: 2
   779  003F17  0D                 	db	13
   780  003F18  09                 	db	9
   781  003F19  5B                 	db	91	;'['
   782  003F1A  45                 	db	69	;'E'
   783  003F1B  53                 	db	83	;'S'
   784  003F1C  43                 	db	67	;'C'
   785  003F1D  5D                 	db	93	;']'
   786  003F1E  20                 	db	32
   787  003F1F  2D                 	db	45
   788  003F20  20                 	db	32
   789  003F21  45                 	db	69	;'E'
   790  003F22  58                 	db	88	;'X'
   791  003F23  49                 	db	73	;'I'
   792  003F24  54                 	db	84	;'T'
   793  003F25  0D                 	db	13
   794  003F26  00                 	db	0
   795  003F27                     STR_1:
   796                           
   797                           ; BSR set to: 2
   798  003F27  1B                 	db	27
   799  003F28  5B                 	db	91	;'['
   800  003F29  30                 	db	48	;'0'
   801  003F2A  6D                 	db	109	;'m'
   802  003F2B  1B                 	db	27
   803  003F2C  5B                 	db	91	;'['
   804  003F2D  32                 	db	50	;'2'
   805  003F2E  4A                 	db	74	;'J'
   806  003F2F  1B                 	db	27
   807  003F30  5B                 	db	91	;'['
   808  003F31  48                 	db	72	;'H'
   809  003F32  1B                 	db	27
   810  003F33  5B                 	db	91	;'['
   811  003F34  31                 	db	49	;'1'
   812  003F35  6D                 	db	109	;'m'
   813  003F36  00                 	db	0
   814  003F37                     STR_48:
   815                           
   816                           ; BSR set to: 2
   817  003F37  0D                 	db	13
   818  003F38  09                 	db	9
   819  003F39  35                 	db	53	;'5'
   820  003F3A  20                 	db	32
   821  003F3B  2D                 	db	45
   822  003F3C  20                 	db	32
   823  003F3D  4D                 	db	77	;'M'
   824  003F3E  41                 	db	65	;'A'
   825  003F3F  47                 	db	71	;'G'
   826  003F40  45                 	db	69	;'E'
   827  003F41  4E                 	db	78	;'N'
   828  003F42  54                 	db	84	;'T'
   829  003F43  41                 	db	65	;'A'
   830  003F44  0D                 	db	13
   831  003F45  00                 	db	0
   832  003F46                     STR_41:
   833                           
   834                           ; BSR set to: 2
   835  003F46  0D                 	db	13
   836  003F47  09                 	db	9
   837  003F48  34                 	db	52	;'4'
   838  003F49  20                 	db	32
   839  003F4A  2D                 	db	45
   840  003F4B  20                 	db	32
   841  003F4C  31                 	db	49	;'1'
   842  003F4D  31                 	db	49	;'1'
   843  003F4E  35                 	db	53	;'5'
   844  003F4F  32                 	db	50	;'2'
   845  003F50  30                 	db	48	;'0'
   846  003F51  30                 	db	48	;'0'
   847  003F52  0D                 	db	13
   848  003F53  00                 	db	0
   849  003F54                     STR_46:
   850                           
   851                           ; BSR set to: 2
   852  003F54  0D                 	db	13
   853  003F55  09                 	db	9
   854  003F56  33                 	db	51	;'3'
   855  003F57  20                 	db	32
   856  003F58  2D                 	db	45
   857  003F59  20                 	db	32
   858  003F5A  59                 	db	89	;'Y'
   859  003F5B  45                 	db	69	;'E'
   860  003F5C  4C                 	db	76	;'L'
   861  003F5D  4C                 	db	76	;'L'
   862  003F5E  4F                 	db	79	;'O'
   863  003F5F  57                 	db	87	;'W'
   864  003F60  0D                 	db	13
   865  003F61  00                 	db	0
   866  003F62                     STR_39:
   867                           
   868                           ; BSR set to: 2
   869  003F62  0D                 	db	13
   870  003F63  09                 	db	9
   871  003F64  32                 	db	50	;'2'
   872  003F65  20                 	db	32
   873  003F66  2D                 	db	45
   874  003F67  20                 	db	32
   875  003F68  31                 	db	49	;'1'
   876  003F69  39                 	db	57	;'9'
   877  003F6A  32                 	db	50	;'2'
   878  003F6B  30                 	db	48	;'0'
   879  003F6C  30                 	db	48	;'0'
   880  003F6D  0D                 	db	13
   881  003F6E  00                 	db	0
   882  003F6F                     STR_40:
   883                           
   884                           ; BSR set to: 2
   885  003F6F  0D                 	db	13
   886  003F70  09                 	db	9
   887  003F71  33                 	db	51	;'3'
   888  003F72  20                 	db	32
   889  003F73  2D                 	db	45
   890  003F74  20                 	db	32
   891  003F75  35                 	db	53	;'5'
   892  003F76  37                 	db	55	;'7'
   893  003F77  36                 	db	54	;'6'
   894  003F78  30                 	db	48	;'0'
   895  003F79  30                 	db	48	;'0'
   896  003F7A  0D                 	db	13
   897  003F7B  00                 	db	0
   898  003F7C                     STR_50:
   899                           
   900                           ; BSR set to: 2
   901  003F7C  0D                 	db	13
   902  003F7D  09                 	db	9
   903  003F7E  37                 	db	55	;'7'
   904  003F7F  20                 	db	32
   905  003F80  2D                 	db	45
   906  003F81  20                 	db	32
   907  003F82  57                 	db	87	;'W'
   908  003F83  48                 	db	72	;'H'
   909  003F84  49                 	db	73	;'I'
   910  003F85  54                 	db	84	;'T'
   911  003F86  45                 	db	69	;'E'
   912  003F87  0D                 	db	13
   913  003F88  00                 	db	0
   914  003F89                     STR_45:
   915                           
   916                           ; BSR set to: 2
   917  003F89  0D                 	db	13
   918  003F8A  09                 	db	9
   919  003F8B  32                 	db	50	;'2'
   920  003F8C  20                 	db	32
   921  003F8D  2D                 	db	45
   922  003F8E  20                 	db	32
   923  003F8F  47                 	db	71	;'G'
   924  003F90  52                 	db	82	;'R'
   925  003F91  45                 	db	69	;'E'
   926  003F92  45                 	db	69	;'E'
   927  003F93  4E                 	db	78	;'N'
   928  003F94  0D                 	db	13
   929  003F95  00                 	db	0
   930  003F96                     STR_38:
   931                           
   932                           ; BSR set to: 2
   933  003F96  0D                 	db	13
   934  003F97  09                 	db	9
   935  003F98  31                 	db	49	;'1'
   936  003F99  20                 	db	32
   937  003F9A  2D                 	db	45
   938  003F9B  20                 	db	32
   939  003F9C  39                 	db	57	;'9'
   940  003F9D  36                 	db	54	;'6'
   941  003F9E  30                 	db	48	;'0'
   942  003F9F  30                 	db	48	;'0'
   943  003FA0  0D                 	db	13
   944  003FA1  00                 	db	0
   945  003FA2                     STR_47:
   946                           
   947                           ; BSR set to: 2
   948  003FA2  0D                 	db	13
   949  003FA3  09                 	db	9
   950  003FA4  34                 	db	52	;'4'
   951  003FA5  20                 	db	32
   952  003FA6  2D                 	db	45
   953  003FA7  20                 	db	32
   954  003FA8  42                 	db	66	;'B'
   955  003FA9  4C                 	db	76	;'L'
   956  003FAA  55                 	db	85	;'U'
   957  003FAB  45                 	db	69	;'E'
   958  003FAC  0D                 	db	13
   959  003FAD  00                 	db	0
   960  003FAE                     STR_49:
   961                           
   962                           ; BSR set to: 2
   963  003FAE  0D                 	db	13
   964  003FAF  09                 	db	9
   965  003FB0  36                 	db	54	;'6'
   966  003FB1  20                 	db	32
   967  003FB2  2D                 	db	45
   968  003FB3  20                 	db	32
   969  003FB4  43                 	db	67	;'C'
   970  003FB5  59                 	db	89	;'Y'
   971  003FB6  41                 	db	65	;'A'
   972  003FB7  4E                 	db	78	;'N'
   973  003FB8  0D                 	db	13
   974  003FB9  00                 	db	0
   975  003FBA                     STR_33:
   976                           
   977                           ; BSR set to: 2
   978  003FBA  0D                 	db	13
   979  003FBB  09                 	db	9
   980  003FBC  31                 	db	49	;'1'
   981  003FBD  20                 	db	32
   982  003FBE  2D                 	db	45
   983  003FBF  20                 	db	32
   984  003FC0  31                 	db	49	;'1'
   985  003FC1  4D                 	db	77	;'M'
   986  003FC2  48                 	db	72	;'H'
   987  003FC3  7A                 	db	122	;'z'
   988  003FC4  0D                 	db	13
   989  003FC5  00                 	db	0
   990  003FC6                     STR_34:
   991                           
   992                           ; BSR set to: 2
   993  003FC6  0D                 	db	13
   994  003FC7  09                 	db	9
   995  003FC8  32                 	db	50	;'2'
   996  003FC9  20                 	db	32
   997  003FCA  2D                 	db	45
   998  003FCB  20                 	db	32
   999  003FCC  32                 	db	50	;'2'
  1000  003FCD  4D                 	db	77	;'M'
  1001  003FCE  48                 	db	72	;'H'
  1002  003FCF  7A                 	db	122	;'z'
  1003  003FD0  0D                 	db	13
  1004  003FD1  00                 	db	0
  1005  003FD2                     STR_35:
  1006                           
  1007                           ; BSR set to: 2
  1008  003FD2  0D                 	db	13
  1009  003FD3  09                 	db	9
  1010  003FD4  33                 	db	51	;'3'
  1011  003FD5  20                 	db	32
  1012  003FD6  2D                 	db	45
  1013  003FD7  20                 	db	32
  1014  003FD8  34                 	db	52	;'4'
  1015  003FD9  4D                 	db	77	;'M'
  1016  003FDA  48                 	db	72	;'H'
  1017  003FDB  7A                 	db	122	;'z'
  1018  003FDC  0D                 	db	13
  1019  003FDD  00                 	db	0
  1020  003FDE                     STR_44:
  1021                           
  1022                           ; BSR set to: 2
  1023  003FDE  0D                 	db	13
  1024  003FDF  09                 	db	9
  1025  003FE0  31                 	db	49	;'1'
  1026  003FE1  20                 	db	32
  1027  003FE2  2D                 	db	45
  1028  003FE3  20                 	db	32
  1029  003FE4  52                 	db	82	;'R'
  1030  003FE5  45                 	db	69	;'E'
  1031  003FE6  44                 	db	68	;'D'
  1032  003FE7  0D                 	db	13
  1033  003FE8  00                 	db	0
  1034  003FE9                     STR_2:
  1035                           
  1036                           ; BSR set to: 2
  1037  003FE9  1B                 	db	27
  1038  003FEA  5B                 	db	91	;'['
  1039  003FEB  33                 	db	51	;'3'
  1040  003FEC  25                 	db	37
  1041  003FED  75                 	db	117	;'u'
  1042  003FEE  6D                 	db	109	;'m'
  1043  003FEF  00                 	db	0
  1044  003FF0                     STR_27:
  1045                           
  1046                           ; BSR set to: 2
  1047  003FF0  08                 	db	8
  1048  003FF1  20                 	db	32
  1049  003FF2  00                 	db	0
  1050  003FF3                     STR_25:
  1051                           
  1052                           ; BSR set to: 2
  1053  003FF3  08                 	db	8
  1054  003FF4  2D                 	db	45
  1055  003FF5  00                 	db	0
  1056  003FF6                     STR_24:
  1057                           
  1058                           ; BSR set to: 2
  1059  003FF6  08                 	db	8
  1060  003FF7  2F                 	db	47
  1061  003FF8  00                 	db	0
  1062  003FF9                     STR_26:
  1063                           
  1064                           ; BSR set to: 2
  1065  003FF9  08                 	db	8
  1066  003FFA  5C                 	db	92	;'\'
  1067  003FFB  00                 	db	0
  1068  003FFC                     STR_23:
  1069                           
  1070                           ; BSR set to: 2
  1071  003FFC  08                 	db	8
  1072  003FFD  7C                 	db	124
  1073  003FFE  00                 	db	0
  1074  003FFF  00                 	db	0	; dummy byte at the end
  1075  0000                     
  1076                           ; #config settings
  1077                           
  1078                           	psect	cinit
  1079  0010B2                     __pcinit:
  1080                           	callstack 0
  1081  0010B2                     start_initialization:
  1082                           	callstack 0
  1083  0010B2                     __initialization:
  1084                           	callstack 0
  1085                           
  1086                           ; Clear objects allocated to BANK6 (256 bytes)
  1087  0010B2  EE01  F200         	lfsr	0,__pbssBANK6
  1088  0010B6  EE10 F100          	lfsr	1,256
  1089  0010BA                     clear_0:
  1090  0010BA  6AEE               	clrf	postinc0,c
  1091  0010BC  50E5               	movf	postdec1,w,c
  1092  0010BE  50E1               	movf	fsr1l,w,c
  1093  0010C0  E1FC               	bnz	clear_0
  1094  0010C2  50E2               	movf	fsr1h,w,c
  1095  0010C4  E1FA               	bnz	clear_0
  1096                           
  1097                           ; Clear objects allocated to BANK5 (35 bytes)
  1098  0010C6  EE01  F1A5         	lfsr	0,__pbssBANK5
  1099  0010CA  0E23               	movlw	35
  1100  0010CC                     clear_1:
  1101  0010CC  6AEE               	clrf	postinc0,c
  1102  0010CE  06E8               	decf	wreg,f,c
  1103  0010D0  E1FD               	bnz	clear_1
  1104                           
  1105                           ; Clear objects allocated to COMRAM (14 bytes)
  1106  0010D2  EE01  F13A         	lfsr	0,__pbssCOMRAM
  1107  0010D6  0E0E               	movlw	14
  1108  0010D8                     clear_2:
  1109  0010D8  6AEE               	clrf	postinc0,c
  1110  0010DA  06E8               	decf	wreg,f,c
  1111  0010DC  E1FD               	bnz	clear_2
  1112                           
  1113                           ;
  1114                           ; Setup IVTBASE
  1115                           ;
  1116  0010DE  0104               	movlb	4
  1117  0010E0  0E08               	movlw	(ivt0x8_base shr 0)& (0+255)
  1118  0010E2  6F5D               	movwf	93,b
  1119  0010E4  0E00               	movlw	(ivt0x8_base shr (0+8))& (0+255)
  1120  0010E6  6F5E               	movwf	94,b
  1121  0010E8  0E00               	movlw	(ivt0x8_base shr (0+16))& (0+255)
  1122  0010EA  6F5F               	movwf	95,b
  1123  0010EC                     end_of_initialization:
  1124                           	callstack 0
  1125  0010EC                     __end_of__initialization:
  1126                           	callstack 0
  1127  0010EC  0E00               	movlw	low (__Lmediumconst shr (0+16))
  1128  0010EE  6EF8               	movwf	tblptru,c
  1129  0010F0  0100               	movlb	0
  1130  0010F2  EF61  F007         	goto	_main	;jump to C main() function
  1131                           
  1132                           	psect	bssCOMRAM
  1133  00053A                     __pbssCOMRAM:
  1134                           	callstack 0
  1135  00053A                     _eprom:
  1136                           	callstack 0
  1137  00053A                     	ds	5
  1138  00053F                     _width:
  1139                           	callstack 0
  1140  00053F                     	ds	2
  1141  000541                     _prec:
  1142                           	callstack 0
  1143  000541                     	ds	2
  1144  000543                     _flags:
  1145                           	callstack 0
  1146  000543                     	ds	2
  1147  000545                     _buff_count:
  1148                           	callstack 0
  1149  000545                     	ds	1
  1150  000546                     _buff_out:
  1151                           	callstack 0
  1152  000546                     	ds	1
  1153  000547                     _buff_in:
  1154                           	callstack 0
  1155  000547                     	ds	1
  1156                           
  1157                           	psect	bssBANK5
  1158  0005A5                     __pbssBANK5:
  1159                           	callstack 0
  1160  0005A5                     _nout:
  1161                           	callstack 0
  1162  0005A5                     	ds	2
  1163  0005A7                     bios_waiting@i:
  1164                           	callstack 0
  1165  0005A7                     	ds	1
  1166  0005A8                     _dbuf:
  1167                           	callstack 0
  1168  0005A8                     	ds	32
  1169                           
  1170                           	psect	bssBANK6
  1171  000600                     __pbssBANK6:
  1172                           	callstack 0
  1173  000600                     _buffer:
  1174                           	callstack 0
  1175  000600                     	ds	256
  1176                           
  1177                           	psect	cstackBANK5
  1178  000560                     __pcstackBANK5:
  1179                           	callstack 0
  1180  000560                     ?_utoa:
  1181                           	callstack 0
  1182  000560                     utoa@fp:
  1183                           	callstack 0
  1184                           
  1185                           ; 2 bytes @ 0x0
  1186  000560                     	ds	2
  1187  000562                     utoa@d:
  1188                           	callstack 0
  1189                           
  1190                           ; 8 bytes @ 0x2
  1191  000562                     	ds	8
  1192  00056A                     ??_utoa:
  1193                           
  1194                           ; 1 bytes @ 0xA
  1195  00056A                     	ds	8
  1196  000572                     utoa@p:
  1197                           	callstack 0
  1198                           
  1199                           ; 2 bytes @ 0x12
  1200  000572                     	ds	2
  1201  000574                     utoa@w:
  1202                           	callstack 0
  1203                           
  1204                           ; 2 bytes @ 0x14
  1205  000574                     	ds	2
  1206  000576                     utoa@n:
  1207                           	callstack 0
  1208                           
  1209                           ; 8 bytes @ 0x16
  1210  000576                     	ds	8
  1211  00057E                     utoa@i:
  1212                           	callstack 0
  1213                           
  1214                           ; 2 bytes @ 0x1E
  1215  00057E                     	ds	2
  1216  000580                     ?_vfpfcnvrt:
  1217                           	callstack 0
  1218  000580                     vfpfcnvrt@fp:
  1219                           	callstack 0
  1220                           
  1221                           ; 2 bytes @ 0x20
  1222  000580                     	ds	2
  1223  000582                     vfpfcnvrt@fmt:
  1224                           	callstack 0
  1225                           
  1226                           ; 2 bytes @ 0x22
  1227  000582                     	ds	2
  1228  000584                     vfpfcnvrt@ap:
  1229                           	callstack 0
  1230                           
  1231                           ; 2 bytes @ 0x24
  1232  000584                     	ds	2
  1233  000586                     vfpfcnvrt@llu:
  1234                           	callstack 0
  1235                           
  1236                           ; 8 bytes @ 0x26
  1237  000586                     	ds	8
  1238  00058E                     ?_vfprintf:
  1239                           	callstack 0
  1240  00058E                     vfprintf@fp:
  1241                           	callstack 0
  1242                           
  1243                           ; 2 bytes @ 0x2E
  1244  00058E                     	ds	2
  1245  000590                     vfprintf@fmt:
  1246                           	callstack 0
  1247                           
  1248                           ; 2 bytes @ 0x30
  1249  000590                     	ds	2
  1250  000592                     vfprintf@ap:
  1251                           	callstack 0
  1252                           
  1253                           ; 2 bytes @ 0x32
  1254  000592                     	ds	2
  1255  000594                     vfprintf@cfmt:
  1256                           	callstack 0
  1257                           
  1258                           ; 2 bytes @ 0x34
  1259  000594                     	ds	2
  1260  000596                     ?_printf:
  1261                           	callstack 0
  1262  000596                     printf@fmt:
  1263                           	callstack 0
  1264                           
  1265                           ; 2 bytes @ 0x36
  1266  000596                     	ds	6
  1267  00059C                     printf@ap:
  1268                           	callstack 0
  1269                           
  1270                           ; 2 bytes @ 0x3C
  1271  00059C                     	ds	2
  1272  00059E                     ??_print_title:
  1273  00059E                     ??_bios_waiting:
  1274  00059E                     ??_menu_print_colour:
  1275  00059E                     bios_menu_speed@m:
  1276                           	callstack 0
  1277  00059E                     bios_menu_baud@m:
  1278                           	callstack 0
  1279                           
  1280                           ; 1 bytes @ 0x3E
  1281  00059E                     	ds	2
  1282  0005A0                     bios_menu_colour@m:
  1283                           	callstack 0
  1284                           
  1285                           ; 1 bytes @ 0x40
  1286  0005A0                     	ds	1
  1287  0005A1                     bios_menu_top@m:
  1288                           	callstack 0
  1289                           
  1290                           ; 1 bytes @ 0x41
  1291  0005A1                     	ds	1
  1292  0005A2                     bios_menu@w:
  1293                           	callstack 0
  1294                           
  1295                           ; 1 bytes @ 0x42
  1296  0005A2                     	ds	1
  1297  0005A3                     ??_main:
  1298                           
  1299                           ; 1 bytes @ 0x43
  1300  0005A3                     	ds	2
  1301                           
  1302                           	psect	cstackCOMRAM
  1303  000501                     __pcstackCOMRAM:
  1304                           	callstack 0
  1305  000501                     ?_islower:
  1306                           	callstack 0
  1307  000501                     islower@c:
  1308                           	callstack 0
  1309                           
  1310                           ; 2 bytes @ 0x0
  1311  000501                     	ds	2
  1312  000503                     ??_islower:
  1313                           
  1314                           ; 1 bytes @ 0x2
  1315  000503                     	ds	4
  1316  000507                     ?_toupper:
  1317                           	callstack 0
  1318  000507                     toupper@c:
  1319                           	callstack 0
  1320                           
  1321                           ; 2 bytes @ 0x6
  1322  000507                     	ds	2
  1323  000509                     ??_toupper:
  1324                           
  1325                           ; 1 bytes @ 0x8
  1326  000509                     	ds	4
  1327  00050D                     i2putch@b:
  1328                           	callstack 0
  1329                           
  1330                           ; 1 bytes @ 0xC
  1331  00050D                     	ds	1
  1332  00050E                     ??i2_getch:
  1333                           
  1334                           ; 1 bytes @ 0xD
  1335  00050E                     	ds	2
  1336  000510                     ??_CLC1_vect_isr:
  1337                           
  1338                           ; 1 bytes @ 0xF
  1339  000510                     	ds	2
  1340  000512                     _CLC1_vect_isr$1948:
  1341                           	callstack 0
  1342                           
  1343                           ; 2 bytes @ 0x11
  1344  000512                     	ds	2
  1345  000514                     _CLC1_vect_isr$1949:
  1346                           	callstack 0
  1347                           
  1348                           ; 2 bytes @ 0x13
  1349  000514                     	ds	2
  1350  000516                     _CLC1_vect_isr$1950:
  1351                           	callstack 0
  1352                           
  1353                           ; 2 bytes @ 0x15
  1354  000516                     	ds	2
  1355  000518                     ??_UART1_framing_err_vect_isr:
  1356                           
  1357                           ; 1 bytes @ 0x17
  1358  000518                     	ds	1
  1359  000519                     ??_clock_set:
  1360  000519                     ?_strlen:
  1361                           	callstack 0
  1362  000519                     ?___lodiv:
  1363                           	callstack 0
  1364  000519                     ?___lomod:
  1365                           	callstack 0
  1366  000519                     putch@b:
  1367                           	callstack 0
  1368  000519                     interrupt_init@state:
  1369                           	callstack 0
  1370  000519                     ___lbdiv@divisor:
  1371                           	callstack 0
  1372  000519                     ___lbmod@divisor:
  1373                           	callstack 0
  1374  000519                     dfm_read@adr:
  1375                           	callstack 0
  1376  000519                     dfm_write@adr:
  1377                           	callstack 0
  1378  000519                     strlen@s:
  1379                           	callstack 0
  1380  000519                     ___lodiv@dividend:
  1381                           	callstack 0
  1382  000519                     ___lomod@dividend:
  1383                           	callstack 0
  1384                           
  1385                           ; 8 bytes @ 0x18
  1386  000519                     	ds	1
  1387  00051A                     ??_getch:
  1388  00051A                     ___lbdiv@dividend:
  1389                           	callstack 0
  1390  00051A                     ___lbmod@dividend:
  1391                           	callstack 0
  1392  00051A                     uart1_init@b:
  1393                           	callstack 0
  1394  00051A                     fputc@c:
  1395                           	callstack 0
  1396                           
  1397                           ; 2 bytes @ 0x19
  1398  00051A                     	ds	1
  1399  00051B                     ??_dfm_read:
  1400  00051B                     dfm_write@dat:
  1401                           	callstack 0
  1402  00051B                     clock_set@f:
  1403                           	callstack 0
  1404  00051B                     ___lbdiv@counter:
  1405                           	callstack 0
  1406  00051B                     ___lbmod@counter:
  1407                           	callstack 0
  1408  00051B                     strlen@a:
  1409                           	callstack 0
  1410                           
  1411                           ; 2 bytes @ 0x1A
  1412  00051B                     	ds	1
  1413  00051C                     ??_uart1_init:
  1414  00051C                     ??_reset_init:
  1415  00051C                     ??_dfm_write:
  1416  00051C                     ___lbdiv@quotient:
  1417                           	callstack 0
  1418  00051C                     ___lbmod@rem:
  1419                           	callstack 0
  1420  00051C                     fputc@fp:
  1421                           	callstack 0
  1422                           
  1423                           ; 2 bytes @ 0x1B
  1424  00051C                     	ds	2
  1425  00051E                     ??_fputc:
  1426                           
  1427                           ; 1 bytes @ 0x1D
  1428  00051E                     	ds	1
  1429  00051F                     dfm_write@GIEBitValue:
  1430                           	callstack 0
  1431                           
  1432                           ; 1 bytes @ 0x1E
  1433  00051F                     	ds	1
  1434  000520                     ??_save_settings:
  1435                           
  1436                           ; 1 bytes @ 0x1F
  1437  000520                     	ds	1
  1438  000521                     ___lodiv@divisor:
  1439                           	callstack 0
  1440  000521                     ___lomod@divisor:
  1441                           	callstack 0
  1442                           
  1443                           ; 8 bytes @ 0x20
  1444  000521                     	ds	1
  1445  000522                     save_settings@adr:
  1446                           	callstack 0
  1447                           
  1448                           ; 1 bytes @ 0x21
  1449  000522                     	ds	1
  1450  000523                     load_settings@adr:
  1451                           	callstack 0
  1452  000523                     fputs@s:
  1453                           	callstack 0
  1454                           
  1455                           ; 2 bytes @ 0x22
  1456  000523                     	ds	2
  1457  000525                     fputs@fp:
  1458                           	callstack 0
  1459                           
  1460                           ; 2 bytes @ 0x24
  1461  000525                     	ds	2
  1462  000527                     fputs@c:
  1463                           	callstack 0
  1464                           
  1465                           ; 1 bytes @ 0x26
  1466  000527                     	ds	1
  1467  000528                     fputs@i:
  1468                           	callstack 0
  1469                           
  1470                           ; 2 bytes @ 0x27
  1471  000528                     	ds	1
  1472  000529                     ___lomod@counter:
  1473                           	callstack 0
  1474  000529                     ___lodiv@quotient:
  1475                           	callstack 0
  1476                           
  1477                           ; 8 bytes @ 0x28
  1478  000529                     	ds	1
  1479  00052A                     ?_pad:
  1480                           	callstack 0
  1481  00052A                     pad@fp:
  1482                           	callstack 0
  1483                           
  1484                           ; 2 bytes @ 0x29
  1485  00052A                     	ds	2
  1486  00052C                     pad@buf:
  1487                           	callstack 0
  1488                           
  1489                           ; 2 bytes @ 0x2B
  1490  00052C                     	ds	2
  1491  00052E                     pad@p:
  1492                           	callstack 0
  1493                           
  1494                           ; 2 bytes @ 0x2D
  1495  00052E                     	ds	2
  1496  000530                     ??_pad:
  1497                           
  1498                           ; 1 bytes @ 0x2F
  1499  000530                     	ds	1
  1500  000531                     ___lodiv@counter:
  1501                           	callstack 0
  1502  000531                     pad@i:
  1503                           	callstack 0
  1504                           
  1505                           ; 2 bytes @ 0x30
  1506  000531                     	ds	2
  1507  000533                     pad@w:
  1508                           	callstack 0
  1509                           
  1510                           ; 2 bytes @ 0x32
  1511  000533                     	ds	2
  1512  000535                     ??_vfpfcnvrt:
  1513                           
  1514                           ; 1 bytes @ 0x34
  1515  000535                     	ds	4
  1516  000539                     text_colour@c:
  1517                           	callstack 0
  1518                           
  1519                           ; 1 bytes @ 0x38
  1520  000539                     	ds	1
  1521  00053A                     
  1522                           ; 1 bytes @ 0x39
  1523 ;;
  1524 ;;Main: autosize = 0, tempsize = 2, incstack = 0, save=0
  1525 ;;
  1526 ;; *************** function _main *****************
  1527 ;; Defined at:
  1528 ;;		line 89 in file "MAIN.c"
  1529 ;; Parameters:    Size  Location     Type
  1530 ;;		None
  1531 ;; Auto vars:     Size  Location     Type
  1532 ;;		None
  1533 ;; Return value:  Size  Location     Type
  1534 ;;                  1    wreg      void 
  1535 ;; Registers used:
  1536 ;;		wreg, fsr1l, fsr1h, fsr2l, fsr2h, status,2, status,0, tblptrl, tblptrh, tblptru, cstack
  1537 ;; Tracked objects:
  1538 ;;		On entry : 0/0
  1539 ;;		On exit  : 0/0
  1540 ;;		Unchanged: 0/0
  1541 ;; Data sizes:     COMRAM   BANK5   BANK6   BANK7   BANK8
  1542 ;;      Params:         0       0       0       0       0
  1543 ;;      Locals:         0       0       0       0       0
  1544 ;;      Temps:          0       2       0       0       0
  1545 ;;      Totals:         0       2       0       0       0
  1546 ;;Total ram usage:        2 bytes
  1547 ;; Hardware stack levels required when called: 17
  1548 ;; This function calls:
  1549 ;;		_bios_menu
  1550 ;;		_clc1_init
  1551 ;;		_clc2_init
  1552 ;;		_clock_init
  1553 ;;		_load_settings
  1554 ;;		_print_title
  1555 ;;		_putch
  1556 ;;		_reset_init
  1557 ;;		_system_init
  1558 ;;		_text_colour
  1559 ;;		_uart1_init
  1560 ;; This function is called by:
  1561 ;;		Startup code after reset
  1562 ;; This function uses a non-reentrant model
  1563 ;;
  1564                           
  1565                           	psect	text0
  1566  000EC2                     __ptext0:
  1567                           	callstack 0
  1568  000EC2                     _main:
  1569                           	callstack 110
  1570                           
  1571                           ;MAIN.c: 91:  system_init();
  1572                           
  1573                           ;incstack = 0
  1574  000EC2  EC2D  F00A         	call	_system_init	;wreg free
  1575                           
  1576                           ;MAIN.c: 92:  clock_init();
  1577  000EC6  ECED  F008         	call	_clock_init	;wreg free
  1578                           
  1579                           ;MAIN.c: 93:  clc1_init();
  1580  000ECA  ECB3  F006         	call	_clc1_init	;wreg free
  1581                           
  1582                           ;MAIN.c: 94:  clc2_init();
  1583  000ECE  EC75  F006         	call	_clc2_init	;wreg free
  1584                           
  1585                           ; BSR set to: 3
  1586                           ;MAIN.c: 95:  load_settings();
  1587  000ED2  EC35  F008         	call	_load_settings	;wreg free
  1588                           
  1589                           ;MAIN.c: 96:  uart1_init(eprom.settings.baud);
  1590  000ED6  C53C  F51A         	movff	_eprom+2,uart1_init@b
  1591  000EDA  C53D  F51B         	movff	_eprom+3,uart1_init@b+1
  1592  000EDE  EC9B  F003         	call	_uart1_init	;wreg free
  1593                           
  1594                           ; BSR set to: 2
  1595                           ;MAIN.c: 97:  (INTCON0bits.GIEH = 1);
  1596  000EE2  8ED6               	bsf	214,7,c	;volatile
  1597                           
  1598                           ; BSR set to: 2
  1599                           ;MAIN.c: 98:  (INTCON0bits.GIEL = 1);
  1600  000EE4  8CD6               	bsf	214,6,c	;volatile
  1601                           
  1602                           ; BSR set to: 2
  1603                           ;MAIN.c: 99:  _delay((unsigned long)((100)*(64000000/4000.0)));
  1604  000EE6  0E09               	movlw	9
  1605  000EE8  0105               	movlb	5	; () banked
  1606  000EEA  6FA4               	movwf	(??_main+1)& (0+255),b
  1607  000EEC  0E1E               	movlw	30
  1608  000EEE  6FA3               	movwf	??_main& (0+255),b
  1609  000EF0  0EE4               	movlw	228
  1610  000EF2                     u2177:
  1611  000EF2  2EE8               	decfsz	wreg,f,c
  1612  000EF4  D7FE               	bra	u2177
  1613  000EF6  2FA3               	decfsz	??_main& (0+255),f,b
  1614  000EF8  D7FC               	bra	u2177
  1615  000EFA  2FA4               	decfsz	(??_main+1)& (0+255),f,b
  1616  000EFC  D7FA               	bra	u2177
  1617  000EFE  F000               	nop	
  1618                           
  1619                           ;MAIN.c: 100:  print_title();
  1620  000F00  EC04  F002         	call	_print_title	;wreg free
  1621                           
  1622                           ; BSR set to: 5
  1623                           ;MAIN.c: 101:  bios_menu();
  1624  000F04  EC6C  F009         	call	_bios_menu	;wreg free
  1625                           
  1626                           ;MAIN.c: 102:  text_colour(eprom.settings.colour);
  1627  000F08  503E               	movf	(_eprom+4)^(0+1280),w,c
  1628  000F0A  EC0A  F00A         	call	_text_colour
  1629                           
  1630                           ; BSR set to: 5
  1631                           ;MAIN.c: 103:  putch('\r');
  1632  000F0E  0E0D               	movlw	13
  1633  000F10  EC36  F00A         	call	_putch
  1634                           
  1635                           ; BSR set to: 2
  1636                           ;MAIN.c: 104:  reset_init();
  1637  000F14  EC9A  F009         	call	_reset_init	;wreg free
  1638  000F18                     l3617:
  1639                           
  1640                           ;MAIN.c: 106:  {;MAIN.c: 107:   __nop();
  1641  000F18  F000               	nop	
  1642  000F1A  D7FE               	goto	l3617
  1643  000F1C                     __end_of_main:
  1644                           	callstack 0
  1645                           
  1646 ;; *************** function _uart1_init *****************
  1647 ;; Defined at:
  1648 ;;		line 36 in file "uart1.c"
  1649 ;; Parameters:    Size  Location     Type
  1650 ;;  b               2   25[COMRAM] unsigned short 
  1651 ;; Auto vars:     Size  Location     Type
  1652 ;;		None
  1653 ;; Return value:  Size  Location     Type
  1654 ;;                  1    wreg      void 
  1655 ;; Registers used:
  1656 ;;		wreg, status,2, status,0, cstack
  1657 ;; Tracked objects:
  1658 ;;		On entry : 38/3
  1659 ;;		On exit  : 3F/2
  1660 ;;		Unchanged: 0/0
  1661 ;; Data sizes:     COMRAM   BANK5   BANK6   BANK7   BANK8
  1662 ;;      Params:         2       0       0       0       0
  1663 ;;      Locals:         0       0       0       0       0
  1664 ;;      Temps:          2       0       0       0       0
  1665 ;;      Totals:         4       0       0       0       0
  1666 ;;Total ram usage:        4 bytes
  1667 ;; Hardware stack levels used: 1
  1668 ;; Hardware stack levels required when called: 5
  1669 ;; This function calls:
  1670 ;;		_putch
  1671 ;; This function is called by:
  1672 ;;		_main
  1673 ;; This function uses a non-reentrant model
  1674 ;;
  1675                           
  1676                           	psect	text1
  1677  000736                     __ptext1:
  1678                           	callstack 0
  1679  000736                     _uart1_init:
  1680                           	callstack 121
  1681                           
  1682                           ;uart1.c: 36: void uart1_init( uint16_t b );uart1.c: 37: {;uart1.c: 38:  PMD3bits.U1MD =
      +                           0;
  1683                           
  1684                           ;incstack = 0
  1685  000736  0100               	movlb	0	; () banked
  1686  000738  9D66               	bcf	102,6,b	;volatile
  1687                           
  1688                           ;uart1.c: 39:     PIE4bits.U1RXIE = 0;
  1689  00073A  90AC               	bcf	172,0,c	;volatile
  1690                           
  1691                           ;uart1.c: 40:     PIE4bits.U1TXIE = 0;
  1692  00073C  92AC               	bcf	172,1,c	;volatile
  1693                           
  1694                           ;uart1.c: 41:     PIE4bits.U1EIE = 0;
  1695  00073E  94AC               	bcf	172,2,c	;volatile
  1696                           
  1697                           ;uart1.c: 42:  LATAbits.LATA0 = 1;
  1698  000740  80BE               	bsf	190,0,c	;volatile
  1699                           
  1700                           ;uart1.c: 43:  TRISAbits.TRISA0 = 0;
  1701  000742  90C6               	bcf	198,0,c	;volatile
  1702                           
  1703                           ; BSR set to: 0
  1704                           ;uart1.c: 44:  RA0PPS = 0x10;
  1705  000744  0E10               	movlw	16
  1706  000746  0102               	movlb	2	; () banked
  1707  000748  6F01               	movwf	1,b	;volatile
  1708                           
  1709                           ; BSR set to: 2
  1710                           ;uart1.c: 45:  TRISAbits.TRISA3 = 1;
  1711  00074A  86C6               	bsf	198,3,c	;volatile
  1712                           
  1713                           ;uart1.c: 46:  U1RXPPS = 0b000011;
  1714  00074C  0E03               	movlw	3
  1715  00074E  6F72               	movwf	114,b	;volatile
  1716                           
  1717                           ;uart1.c: 47:  U1CON0 = 0x00;
  1718  000750  0E00               	movlw	0
  1719  000752  6FAB               	movwf	171,b	;volatile
  1720                           
  1721                           ; BSR set to: 2
  1722                           ;uart1.c: 48:  U1CON0bits.BRGS = 1;
  1723  000754  8FAB               	bsf	171,7,b	;volatile
  1724                           
  1725                           ; BSR set to: 2
  1726                           ;uart1.c: 49:  U1CON0bits.TXEN = 1;
  1727  000756  8BAB               	bsf	171,5,b	;volatile
  1728                           
  1729                           ; BSR set to: 2
  1730                           ;uart1.c: 50:  U1CON0bits.RXEN = 1;
  1731  000758  89AB               	bsf	171,4,b	;volatile
  1732                           
  1733                           ;uart1.c: 51:  U1CON1 = 0x00;
  1734  00075A  0E00               	movlw	0
  1735  00075C  6FAC               	movwf	172,b	;volatile
  1736                           
  1737                           ;uart1.c: 52:  U1CON2 = 0x00;
  1738  00075E  0E00               	movlw	0
  1739  000760  6FAD               	movwf	173,b	;volatile
  1740                           
  1741                           ; BSR set to: 2
  1742                           ;uart1.c: 53:  U1CON2bits.RUNOVF = 1;
  1743  000762  8FAD               	bsf	173,7,b	;volatile
  1744                           
  1745                           ;uart1.c: 54:  switch(b)
  1746  000764  D011               	goto	l2935
  1747  000766                     l2925:
  1748                           
  1749                           ; BSR set to: 2
  1750                           ;uart1.c: 57:    U1BRGL = 0x8A;
  1751  000766  0E8A               	movlw	138
  1752  000768  6FAE               	movwf	174,b	;volatile
  1753                           
  1754                           ;uart1.c: 58:    U1BRGH = 0x00;
  1755  00076A  0E00               	movlw	0
  1756  00076C  D00B               	goto	L3
  1757  00076E                     l2927:
  1758                           
  1759                           ; BSR set to: 2
  1760                           ;uart1.c: 61:    U1BRGL = 0x15;
  1761  00076E  0E15               	movlw	21
  1762  000770  6FAE               	movwf	174,b	;volatile
  1763                           
  1764                           ;uart1.c: 62:    U1BRGH = 0x01;
  1765  000772  0E01               	movlw	1
  1766  000774  D007               	goto	L3
  1767  000776                     l2929:
  1768                           
  1769                           ; BSR set to: 2
  1770                           ;uart1.c: 65:    U1BRGL = 0x40;
  1771  000776  0E40               	movlw	64
  1772  000778  6FAE               	movwf	174,b	;volatile
  1773                           
  1774                           ;uart1.c: 66:    U1BRGH = 0x03;
  1775  00077A  0E03               	movlw	3
  1776  00077C  D003               	goto	L3
  1777  00077E                     l2931:
  1778                           
  1779                           ; BSR set to: 2
  1780                           ;uart1.c: 70:    U1BRGL = 0x82;
  1781  00077E  0E82               	movlw	130
  1782  000780  6FAE               	movwf	174,b	;volatile
  1783                           
  1784                           ;uart1.c: 71:    U1BRGH = 0x06;
  1785  000782  0E06               	movlw	6
  1786  000784                     L3:
  1787  000784  6FAF               	movwf	175,b	;volatile
  1788                           
  1789                           ;uart1.c: 72:    break;
  1790  000786  D021               	goto	l2937
  1791  000788                     l2935:
  1792                           
  1793                           ; BSR set to: 2
  1794  000788  C51A  F51C         	movff	uart1_init@b,??_uart1_init
  1795  00078C  C51B  F51D         	movff	uart1_init@b+1,??_uart1_init+1
  1796                           
  1797                           ; Switch on 2 bytes has been partitioned into a top level switch of size 1, and 3 sub-sw
      +                          itches
  1798                           ; Switch size 1, requested type "simple"
  1799                           ; Number of cases is 3, Range of values is 0 to 4
  1800                           ; switch strategies available:
  1801                           ; Name         Instructions Cycles
  1802                           ; simple_byte           10     6 (average)
  1803                           ;	Chosen strategy is simple_byte
  1804  000790  501D               	movf	(??_uart1_init+1)^(0+1280),w,c
  1805  000792  0A00               	xorlw	0	; case 0
  1806  000794  B4D8               	btfsc	status,2,c
  1807  000796  D007               	goto	l3739
  1808  000798  0A02               	xorlw	2	; case 2
  1809  00079A  B4D8               	btfsc	status,2,c
  1810  00079C  D00C               	goto	l3741
  1811  00079E  0A06               	xorlw	6	; case 4
  1812  0007A0  B4D8               	btfsc	status,2,c
  1813  0007A2  D00E               	goto	l3743
  1814  0007A4  D7EC               	goto	l2931
  1815  0007A6                     l3739:
  1816                           
  1817                           ; BSR set to: 2
  1818                           ; Switch size 1, requested type "simple"
  1819                           ; Number of cases is 2, Range of values is 96 to 192
  1820                           ; switch strategies available:
  1821                           ; Name         Instructions Cycles
  1822                           ; simple_byte            7     4 (average)
  1823                           ;	Chosen strategy is simple_byte
  1824  0007A6  501C               	movf	??_uart1_init^(0+1280),w,c
  1825  0007A8  0A60               	xorlw	96	; case 96
  1826  0007AA  B4D8               	btfsc	status,2,c
  1827  0007AC  D7E8               	goto	l2931
  1828  0007AE  0AA0               	xorlw	160	; case 192
  1829  0007B0  B4D8               	btfsc	status,2,c
  1830  0007B2  D7E1               	goto	l2929
  1831  0007B4  D7E4               	goto	l2931
  1832  0007B6                     l3741:
  1833                           
  1834                           ; BSR set to: 2
  1835                           ; Switch size 1, requested type "simple"
  1836                           ; Number of cases is 1, Range of values is 64 to 64
  1837                           ; switch strategies available:
  1838                           ; Name         Instructions Cycles
  1839                           ; simple_byte            4     3 (average)
  1840                           ;	Chosen strategy is simple_byte
  1841  0007B6  501C               	movf	??_uart1_init^(0+1280),w,c
  1842  0007B8  0A40               	xorlw	64	; case 64
  1843  0007BA  B4D8               	btfsc	status,2,c
  1844  0007BC  D7D8               	goto	l2927
  1845  0007BE  D7DF               	goto	l2931
  1846  0007C0                     l3743:
  1847                           
  1848                           ; BSR set to: 2
  1849                           ; Switch size 1, requested type "simple"
  1850                           ; Number of cases is 1, Range of values is 128 to 128
  1851                           ; switch strategies available:
  1852                           ; Name         Instructions Cycles
  1853                           ; simple_byte            4     3 (average)
  1854                           ;	Chosen strategy is simple_byte
  1855  0007C0  501C               	movf	??_uart1_init^(0+1280),w,c
  1856  0007C2  0A80               	xorlw	128	; case 128
  1857  0007C4  B4D8               	btfsc	status,2,c
  1858  0007C6  D7CF               	goto	l2925
  1859  0007C8  D7DA               	goto	l2931
  1860  0007CA                     l2937:
  1861                           
  1862                           ; BSR set to: 2
  1863                           ;uart1.c: 74:     U1FIFO = 0x00;
  1864  0007CA  0E00               	movlw	0
  1865  0007CC  6FB0               	movwf	176,b	;volatile
  1866                           
  1867                           ;uart1.c: 75:     U1UIR = 0x00;
  1868  0007CE  0E00               	movlw	0
  1869  0007D0  6FB1               	movwf	177,b	;volatile
  1870                           
  1871                           ;uart1.c: 76:     U1ERRIR = 0x00;
  1872  0007D2  0E00               	movlw	0
  1873  0007D4  6FB2               	movwf	178,b	;volatile
  1874                           
  1875                           ;uart1.c: 77:  U1ERRIE = 0x00;
  1876  0007D6  0E00               	movlw	0
  1877  0007D8  6FB3               	movwf	179,b	;volatile
  1878                           
  1879                           ; BSR set to: 2
  1880                           ;uart1.c: 78:     IPR4bits.U1TXIP = 0;
  1881  0007DA  0103               	movlb	3	; () banked
  1882  0007DC  936B               	bcf	107,1,b	;volatile
  1883                           
  1884                           ; BSR set to: 3
  1885                           ;uart1.c: 79:     IPR4bits.U1EIP = 0;
  1886  0007DE  956B               	bcf	107,2,b	;volatile
  1887                           
  1888                           ; BSR set to: 3
  1889                           ;uart1.c: 80:     IPR4bits.U1RXIP = 1;
  1890  0007E0  816B               	bsf	107,0,b	;volatile
  1891                           
  1892                           ;uart1.c: 81:  buff_in = 0;
  1893  0007E2  0E00               	movlw	0
  1894  0007E4  6E47               	movwf	_buff_in^(0+1280),c
  1895                           
  1896                           ;uart1.c: 82:  buff_out = 0;
  1897  0007E6  0E00               	movlw	0
  1898  0007E8  6E46               	movwf	_buff_out^(0+1280),c
  1899                           
  1900                           ;uart1.c: 83:  buff_count = 0;
  1901  0007EA  0E00               	movlw	0
  1902  0007EC  6E45               	movwf	_buff_count^(0+1280),c
  1903                           
  1904                           ; BSR set to: 3
  1905                           ;uart1.c: 84:     PIE4bits.U1RXIE = 1;
  1906  0007EE  80AC               	bsf	172,0,c	;volatile
  1907                           
  1908                           ; BSR set to: 3
  1909                           ;uart1.c: 85:     PIE4bits.U1EIE = 1;
  1910  0007F0  84AC               	bsf	172,2,c	;volatile
  1911                           
  1912                           ; BSR set to: 3
  1913                           ;uart1.c: 86:  U1CON1bits.ON=1;
  1914  0007F2  0102               	movlb	2	; () banked
  1915  0007F4  8FAC               	bsf	172,7,b	;volatile
  1916                           
  1917                           ; BSR set to: 2
  1918                           ;uart1.c: 87:  putch( 0x11 );
  1919  0007F6  0E11               	movlw	17
  1920  0007F8  EC36  F00A         	call	_putch
  1921                           
  1922                           ; BSR set to: 2
  1923  0007FC  0012               	return		;funcret
  1924  0007FE                     __end_of_uart1_init:
  1925                           	callstack 0
  1926                           
  1927 ;; *************** function _system_init *****************
  1928 ;; Defined at:
  1929 ;;		line 83 in file "system.c"
  1930 ;; Parameters:    Size  Location     Type
  1931 ;;		None
  1932 ;; Auto vars:     Size  Location     Type
  1933 ;;		None
  1934 ;; Return value:  Size  Location     Type
  1935 ;;                  1    wreg      void 
  1936 ;; Registers used:
  1937 ;;		wreg, status,2, cstack
  1938 ;; Tracked objects:
  1939 ;;		On entry : 0/0
  1940 ;;		On exit  : 3F/2
  1941 ;;		Unchanged: 0/0
  1942 ;; Data sizes:     COMRAM   BANK5   BANK6   BANK7   BANK8
  1943 ;;      Params:         0       0       0       0       0
  1944 ;;      Locals:         0       0       0       0       0
  1945 ;;      Temps:          0       0       0       0       0
  1946 ;;      Totals:         0       0       0       0       0
  1947 ;;Total ram usage:        0 bytes
  1948 ;; Hardware stack levels used: 1
  1949 ;; Hardware stack levels required when called: 5
  1950 ;; This function calls:
  1951 ;;		_interrupt_init
  1952 ;;		_oscillator_init
  1953 ;;		_peripheral_disable_init
  1954 ;;		_pin_init
  1955 ;; This function is called by:
  1956 ;;		_main
  1957 ;; This function uses a non-reentrant model
  1958 ;;
  1959                           
  1960                           	psect	text2
  1961  00145A                     __ptext2:
  1962                           	callstack 0
  1963  00145A                     _system_init:
  1964                           	callstack 121
  1965                           
  1966                           ;system.c: 85:  LATAbits.LATA5 = 0;
  1967                           
  1968                           ; BSR set to: 2
  1969                           ;incstack = 0
  1970  00145A  ECFC  F009         	call	_oscillator_init	;wreg free
  1971                           
  1972                           ;system.c: 86: 
  1973  00145E  EC7B  F008         	call	_interrupt_init	;wreg free
  1974                           
  1975                           ;system.c: 87:  TRISBbits.TRISB4=1;
  1976  001462  ECEE  F009         	call	_peripheral_disable_init	;wreg free
  1977                           
  1978                           ; BSR set to: 0
  1979                           ;system.c: 88:  CLCIN0PPS = 0b00001100;
  1980  001466  ECF0  F006         	call	_pin_init	;wreg free
  1981                           
  1982                           ; BSR set to: 2
  1983  00146A  0012               	return		;funcret
  1984  00146C                     __end_of_system_init:
  1985                           	callstack 0
  1986                           
  1987 ;; *************** function _pin_init *****************
  1988 ;; Defined at:
  1989 ;;		line 130 in file "system.c"
  1990 ;; Parameters:    Size  Location     Type
  1991 ;;		None
  1992 ;; Auto vars:     Size  Location     Type
  1993 ;;		None
  1994 ;; Return value:  Size  Location     Type
  1995 ;;                  1    wreg      void 
  1996 ;; Registers used:
  1997 ;;		wreg, status,2
  1998 ;; Tracked objects:
  1999 ;;		On entry : 3F/0
  2000 ;;		On exit  : 3F/2
  2001 ;;		Unchanged: 0/0
  2002 ;; Data sizes:     COMRAM   BANK5   BANK6   BANK7   BANK8
  2003 ;;      Params:         0       0       0       0       0
  2004 ;;      Locals:         0       0       0       0       0
  2005 ;;      Temps:          0       0       0       0       0
  2006 ;;      Totals:         0       0       0       0       0
  2007 ;;Total ram usage:        0 bytes
  2008 ;; Hardware stack levels used: 1
  2009 ;; Hardware stack levels required when called: 4
  2010 ;; This function calls:
  2011 ;;		Nothing
  2012 ;; This function is called by:
  2013 ;;		_system_init
  2014 ;; This function uses a non-reentrant model
  2015 ;;
  2016                           
  2017                           	psect	text3
  2018  000DE0                     __ptext3:
  2019                           	callstack 0
  2020  000DE0                     _pin_init:
  2021                           	callstack 121
  2022                           
  2023                           ; BSR set to: 0
  2024                           
  2025                           ; BSR set to: 2
  2026                           ;incstack = 0
  2027  000DE0  0E00               	movlw	0
  2028  000DE2  0104               	movlb	4	; () banked
  2029  000DE4  6F04               	movwf	4,b	;volatile
  2030  000DE6  0E00               	movlw	0
  2031  000DE8  6F0C               	movwf	12,b	;volatile
  2032  000DEA  0E00               	movlw	0
  2033  000DEC  6F14               	movwf	20,b	;volatile
  2034  000DEE  0E00               	movlw	0
  2035  000DF0  6F00               	movwf	0,b	;volatile
  2036  000DF2  0E00               	movlw	0
  2037  000DF4  6F08               	movwf	8,b	;volatile
  2038  000DF6  0E00               	movlw	0
  2039  000DF8  6F10               	movwf	16,b	;volatile
  2040  000DFA  0E00               	movlw	0
  2041  000DFC  6F01               	movwf	1,b	;volatile
  2042  000DFE  0E00               	movlw	0
  2043  000E00  6F09               	movwf	9,b	;volatile
  2044  000E02  0E00               	movlw	0
  2045  000E04  6F11               	movwf	17,b	;volatile
  2046  000E06  0E00               	movlw	0
  2047  000E08  6F03               	movwf	3,b	;volatile
  2048  000E0A  0E00               	movlw	0
  2049  000E0C  6F0B               	movwf	11,b	;volatile
  2050  000E0E  0E00               	movlw	0
  2051  000E10  6F13               	movwf	19,b	;volatile
  2052  000E12  0E00               	movlw	0
  2053  000E14  6F02               	movwf	2,b	;volatile
  2054  000E16  0E00               	movlw	0
  2055  000E18  6F0A               	movwf	10,b	;volatile
  2056  000E1A  0E00               	movlw	0
  2057  000E1C  6F12               	movwf	18,b	;volatile
  2058                           
  2059                           ; BSR set to: 4
  2060  000E1E  8301               	bsf	1,1,b	;volatile
  2061                           
  2062                           ; BSR set to: 4
  2063  000E20  82C6               	bsf	198,1,c	;volatile
  2064  000E22  0E01               	movlw	1
  2065  000E24  0102               	movlb	2	; () banked
  2066  000E26  6F3E               	movwf	62,b	;volatile
  2067                           
  2068                           ; BSR set to: 2
  2069  000E28  90D6               	bcf	214,0,c	;volatile
  2070                           
  2071                           ; BSR set to: 2
  2072  000E2A  0103               	movlb	3	; () banked
  2073  000E2C  9168               	bcf	104,0,b	;volatile
  2074                           
  2075                           ; BSR set to: 3
  2076  000E2E  90B4               	bcf	180,0,c	;volatile
  2077                           
  2078                           ; BSR set to: 3
  2079  000E30  80A9               	bsf	169,0,c	;volatile
  2080                           
  2081                           ; BSR set to: 3
  2082  000E32  84C6               	bsf	198,2,c	;volatile
  2083                           
  2084                           ; BSR set to: 3
  2085  000E34  98C6               	bcf	198,4,c	;volatile
  2086                           
  2087                           ; BSR set to: 3
  2088  000E36  88BE               	bsf	190,4,c	;volatile
  2089  000E38  0E26               	movlw	38
  2090  000E3A  0102               	movlb	2	; () banked
  2091  000E3C  6F05               	movwf	5,b	;volatile
  2092                           
  2093                           ; BSR set to: 2
  2094  000E3E  9AC6               	bcf	198,5,c	;volatile
  2095                           
  2096                           ; BSR set to: 2
  2097  000E40  9ABE               	bcf	190,5,c	;volatile
  2098                           
  2099                           ; BSR set to: 2
  2100  000E42  88C7               	bsf	199,4,c	;volatile
  2101  000E44  0E0C               	movlw	12
  2102  000E46  6F61               	movwf	97,b	;volatile
  2103                           
  2104                           ; BSR set to: 2
  2105  000E48  8AC7               	bsf	199,5,c	;volatile
  2106  000E4A  0E0D               	movlw	13
  2107  000E4C  6F62               	movwf	98,b	;volatile
  2108                           
  2109                           ; BSR set to: 2
  2110  000E4E  8EC7               	bsf	199,7,c	;volatile
  2111                           
  2112                           ; BSR set to: 2
  2113  000E50  8CC7               	bsf	199,6,c	;volatile
  2114                           
  2115                           ; BSR set to: 2
  2116  000E52  68C8               	setf	200,c	;volatile
  2117                           
  2118                           ; BSR set to: 2
  2119  000E54  0012               	return		;funcret
  2120  000E56                     __end_of_pin_init:
  2121                           	callstack 0
  2122                           
  2123 ;; *************** function _peripheral_disable_init *****************
  2124 ;; Defined at:
  2125 ;;		line 109 in file "system.c"
  2126 ;; Parameters:    Size  Location     Type
  2127 ;;		None
  2128 ;; Auto vars:     Size  Location     Type
  2129 ;;		None
  2130 ;; Return value:  Size  Location     Type
  2131 ;;                  1    wreg      void 
  2132 ;; Registers used:
  2133 ;;		None
  2134 ;; Tracked objects:
  2135 ;;		On entry : 0/0
  2136 ;;		On exit  : 3F/0
  2137 ;;		Unchanged: 0/0
  2138 ;; Data sizes:     COMRAM   BANK5   BANK6   BANK7   BANK8
  2139 ;;      Params:         0       0       0       0       0
  2140 ;;      Locals:         0       0       0       0       0
  2141 ;;      Temps:          0       0       0       0       0
  2142 ;;      Totals:         0       0       0       0       0
  2143 ;;Total ram usage:        0 bytes
  2144 ;; Hardware stack levels used: 1
  2145 ;; Hardware stack levels required when called: 4
  2146 ;; This function calls:
  2147 ;;		Nothing
  2148 ;; This function is called by:
  2149 ;;		_system_init
  2150 ;; This function uses a non-reentrant model
  2151 ;;
  2152                           
  2153                           	psect	text4
  2154  0013DC                     __ptext4:
  2155                           	callstack 0
  2156  0013DC                     _peripheral_disable_init:
  2157                           	callstack 121
  2158                           
  2159                           ;system.c: 111:     IVTBASEU = 0;
  2160                           
  2161                           ; BSR set to: 2
  2162                           ;incstack = 0
  2163  0013DC  0100               	movlb	0	; () banked
  2164  0013DE  9F63               	bcf	99,7,b	;volatile
  2165                           
  2166                           ;system.c: 112:     IVTBASEH = 0;
  2167  0013E0  8D63               	bsf	99,6,b	;volatile
  2168                           
  2169                           ;system.c: 113:     IVTBASEL = 8;
  2170  0013E2  8B63               	bsf	99,5,b	;volatile
  2171                           
  2172                           ;system.c: 114:     IVTLOCK = 0x55;
  2173  0013E4  8963               	bsf	99,4,b	;volatile
  2174                           
  2175                           ;system.c: 115:     IVTLOCK = 0xAA;
  2176  0013E6  9763               	bcf	99,3,b	;volatile
  2177                           
  2178                           ;system.c: 116:     IVTLOCKbits.IVTLOCKED = 0x01;
  2179  0013E8  8363               	bsf	99,1,b	;volatile
  2180                           
  2181                           ;system.c: 117:     GIE = state;
  2182  0013EA  8163               	bsf	99,0,b	;volatile
  2183                           
  2184                           ;system.c: 119: 
  2185  0013EC  6964               	setf	100,b	;volatile
  2186                           
  2187                           ;system.c: 120: 
  2188  0013EE  6965               	setf	101,b	;volatile
  2189                           
  2190                           ;system.c: 121: 
  2191  0013F0  6966               	setf	102,b	;volatile
  2192                           
  2193                           ;system.c: 122: 
  2194  0013F2  6967               	setf	103,b	;volatile
  2195                           
  2196                           ;system.c: 123: 
  2197  0013F4  6968               	setf	104,b	;volatile
  2198                           
  2199                           ; BSR set to: 0
  2200  0013F6  0012               	return		;funcret
  2201  0013F8                     __end_of_peripheral_disable_init:
  2202                           	callstack 0
  2203                           
  2204 ;; *************** function _oscillator_init *****************
  2205 ;; Defined at:
  2206 ;;		line 95 in file "system.c"
  2207 ;; Parameters:    Size  Location     Type
  2208 ;;		None
  2209 ;; Auto vars:     Size  Location     Type
  2210 ;;		None
  2211 ;; Return value:  Size  Location     Type
  2212 ;;                  1    wreg      void 
  2213 ;; Registers used:
  2214 ;;		wreg, status,2
  2215 ;; Tracked objects:
  2216 ;;		On entry : 0/0
  2217 ;;		On exit  : 3F/0
  2218 ;;		Unchanged: 0/0
  2219 ;; Data sizes:     COMRAM   BANK5   BANK6   BANK7   BANK8
  2220 ;;      Params:         0       0       0       0       0
  2221 ;;      Locals:         0       0       0       0       0
  2222 ;;      Temps:          0       0       0       0       0
  2223 ;;      Totals:         0       0       0       0       0
  2224 ;;Total ram usage:        0 bytes
  2225 ;; Hardware stack levels used: 1
  2226 ;; Hardware stack levels required when called: 4
  2227 ;; This function calls:
  2228 ;;		Nothing
  2229 ;; This function is called by:
  2230 ;;		_system_init
  2231 ;; This function uses a non-reentrant model
  2232 ;;
  2233                           
  2234                           	psect	text5
  2235  0013F8                     __ptext5:
  2236                           	callstack 0
  2237  0013F8                     _oscillator_init:
  2238                           	callstack 121
  2239                           
  2240                           ;system.c: 97: }
  2241                           
  2242                           ; BSR set to: 0
  2243                           ;incstack = 0
  2244  0013F8  0E60               	movlw	96
  2245  0013FA  0100               	movlb	0	; () banked
  2246  0013FC  6FAD               	movwf	173,b	;volatile
  2247                           
  2248                           ;system.c: 98: 
  2249  0013FE  0E00               	movlw	0
  2250  001400  6FAF               	movwf	175,b	;volatile
  2251                           
  2252                           ;system.c: 99: 
  2253  001402  0E00               	movlw	0
  2254  001404  6FB3               	movwf	179,b	;volatile
  2255                           
  2256                           ;system.c: 100: 
  2257  001406  0E08               	movlw	8
  2258  001408  6FB1               	movwf	177,b	;volatile
  2259                           
  2260                           ;system.c: 101: 
  2261  00140A  0E00               	movlw	0
  2262  00140C  6FB0               	movwf	176,b	;volatile
  2263                           
  2264                           ;system.c: 102: 
  2265  00140E  0E00               	movlw	0
  2266  001410  6FAC               	movwf	172,b	;volatile
  2267                           
  2268                           ; BSR set to: 0
  2269  001412  0012               	return		;funcret
  2270  001414                     __end_of_oscillator_init:
  2271                           	callstack 0
  2272                           
  2273 ;; *************** function _interrupt_init *****************
  2274 ;; Defined at:
  2275 ;;		line 182 in file "system.c"
  2276 ;; Parameters:    Size  Location     Type
  2277 ;;		None
  2278 ;; Auto vars:     Size  Location     Type
  2279 ;;  state           1   24[COMRAM] _Bool 
  2280 ;; Return value:  Size  Location     Type
  2281 ;;                  1    wreg      void 
  2282 ;; Registers used:
  2283 ;;		wreg, status,2
  2284 ;; Tracked objects:
  2285 ;;		On entry : 3F/0
  2286 ;;		On exit  : 0/0
  2287 ;;		Unchanged: 0/0
  2288 ;; Data sizes:     COMRAM   BANK5   BANK6   BANK7   BANK8
  2289 ;;      Params:         0       0       0       0       0
  2290 ;;      Locals:         1       0       0       0       0
  2291 ;;      Temps:          0       0       0       0       0
  2292 ;;      Totals:         1       0       0       0       0
  2293 ;;Total ram usage:        1 bytes
  2294 ;; Hardware stack levels used: 1
  2295 ;; Hardware stack levels required when called: 4
  2296 ;; This function calls:
  2297 ;;		Nothing
  2298 ;; This function is called by:
  2299 ;;		_system_init
  2300 ;; This function uses a non-reentrant model
  2301 ;;
  2302                           
  2303                           	psect	text6
  2304  0010F6                     __ptext6:
  2305                           	callstack 0
  2306  0010F6                     _interrupt_init:
  2307                           	callstack 121
  2308                           
  2309                           ; BSR set to: 0
  2310                           
  2311                           ; BSR set to: 0
  2312                           ;incstack = 0
  2313  0010F6  8AD6               	bsf	214,5,c	;volatile
  2314                           
  2315                           ; BSR set to: 0
  2316  0010F8  0E00               	movlw	0
  2317  0010FA  BED6               	btfsc	1238,7,c	;volatile
  2318  0010FC  0E01               	movlw	1
  2319  0010FE  6E19               	movwf	interrupt_init@state^(0+1280),c
  2320                           
  2321                           ; BSR set to: 0
  2322  001100  9ED6               	bcf	1238,7,c	;volatile
  2323  001102  0E55               	movlw	85
  2324  001104  0104               	movlb	4	; () banked
  2325  001106  6F59               	movwf	89,b	;volatile
  2326  001108  0EAA               	movlw	170
  2327  00110A  6F59               	movwf	89,b	;volatile
  2328                           
  2329                           ; BSR set to: 4
  2330  00110C  9159               	bcf	89,0,b	;volatile
  2331  00110E  0E00               	movlw	0
  2332  001110  6F5F               	movwf	95,b	;volatile
  2333  001112  0E00               	movlw	0
  2334  001114  6F5E               	movwf	94,b	;volatile
  2335  001116  0E08               	movlw	8
  2336  001118  6F5D               	movwf	93,b	;volatile
  2337  00111A  0E55               	movlw	85
  2338  00111C  6F59               	movwf	89,b	;volatile
  2339  00111E  0EAA               	movlw	170
  2340  001120  6F59               	movwf	89,b	;volatile
  2341                           
  2342                           ; BSR set to: 4
  2343  001122  8159               	bsf	89,0,b	;volatile
  2344                           
  2345                           ; BSR set to: 4
  2346  001124  B019               	btfsc	interrupt_init@state^(0+1280),0,c
  2347  001126  D002               	bra	u635
  2348  001128  9ED6               	bcf	1238,7,c	;volatile
  2349  00112A  D001               	bra	u636
  2350  00112C                     u635:
  2351  00112C  8ED6               	bsf	1238,7,c	;volatile
  2352  00112E                     u636:
  2353  00112E  0012               	return		;funcret
  2354  001130                     __end_of_interrupt_init:
  2355                           	callstack 0
  2356                           
  2357 ;; *************** function _reset_init *****************
  2358 ;; Defined at:
  2359 ;;		line 115 in file "MAIN.c"
  2360 ;; Parameters:    Size  Location     Type
  2361 ;;		None
  2362 ;; Auto vars:     Size  Location     Type
  2363 ;;		None
  2364 ;; Return value:  Size  Location     Type
  2365 ;;                  1    wreg      void 
  2366 ;; Registers used:
  2367 ;;		wreg, status,2, status,0, cstack
  2368 ;; Tracked objects:
  2369 ;;		On entry : 3F/2
  2370 ;;		On exit  : 0/0
  2371 ;;		Unchanged: 0/0
  2372 ;; Data sizes:     COMRAM   BANK5   BANK6   BANK7   BANK8
  2373 ;;      Params:         0       0       0       0       0
  2374 ;;      Locals:         0       0       0       0       0
  2375 ;;      Temps:          1       0       0       0       0
  2376 ;;      Totals:         1       0       0       0       0
  2377 ;;Total ram usage:        1 bytes
  2378 ;; Hardware stack levels used: 1
  2379 ;; Hardware stack levels required when called: 5
  2380 ;; This function calls:
  2381 ;;		_clock_set
  2382 ;; This function is called by:
  2383 ;;		_main
  2384 ;; This function uses a non-reentrant model
  2385 ;;
  2386                           
  2387                           	psect	text7
  2388  001334                     __ptext7:
  2389                           	callstack 0
  2390  001334                     _reset_init:
  2391                           	callstack 121
  2392                           
  2393                           ; BSR set to: 2
  2394                           
  2395                           ; BSR set to: 2
  2396                           ;MAIN.c: 117:  while(!PORTAbits.RA1);
  2397                           
  2398                           ;incstack = 0
  2399  001334  A2CE               	btfss	206,1,c	;volatile
  2400  001336  D7FE               	goto	__ptext7
  2401                           
  2402                           ; BSR set to: 2
  2403                           ;MAIN.c: 118:  _delay((unsigned long)((5)*(64000000/4000.0)));
  2404  001338  0E68               	movlw	104
  2405  00133A  6E1C               	movwf	??_reset_init^(0+1280),c
  2406  00133C  0EE4               	movlw	228
  2407  00133E                     u2187:
  2408  00133E  2EE8               	decfsz	wreg,f,c
  2409  001340  D7FE               	bra	u2187
  2410  001342  2E1C               	decfsz	??_reset_init^(0+1280),f,c
  2411  001344  D7FC               	bra	u2187
  2412  001346  D000               	nop2	
  2413                           
  2414                           ;MAIN.c: 119:  clock_set(eprom.settings.speed);
  2415  001348  503B               	movf	(_eprom+1)^(0+1280),w,c
  2416  00134A  ECBA  F007         	call	_clock_set
  2417                           
  2418                           ; BSR set to: 0
  2419                           ;MAIN.c: 120:  _delay((unsigned long)((2)*(64000000/4000.0)));
  2420  00134E  0E2A               	movlw	42
  2421  001350  6E1C               	movwf	??_reset_init^(0+1280),c
  2422  001352  0E8E               	movlw	142
  2423  001354                     u2197:
  2424  001354  2EE8               	decfsz	wreg,f,c
  2425  001356  D7FE               	bra	u2197
  2426  001358  2E1C               	decfsz	??_reset_init^(0+1280),f,c
  2427  00135A  D7FC               	bra	u2197
  2428                           
  2429                           ;MAIN.c: 121:  LATAbits.LATA5=1;
  2430  00135C  8ABE               	bsf	190,5,c	;volatile
  2431  00135E  0012               	return		;funcret
  2432  001360                     __end_of_reset_init:
  2433                           	callstack 0
  2434                           
  2435 ;; *************** function _clock_set *****************
  2436 ;; Defined at:
  2437 ;;		line 65 in file "CLOCK.c"
  2438 ;; Parameters:    Size  Location     Type
  2439 ;;  f               1    wreg     unsigned char 
  2440 ;; Auto vars:     Size  Location     Type
  2441 ;;  f               1   26[COMRAM] unsigned char 
  2442 ;; Return value:  Size  Location     Type
  2443 ;;                  1    wreg      void 
  2444 ;; Registers used:
  2445 ;;		wreg, status,2, status,0
  2446 ;; Tracked objects:
  2447 ;;		On entry : 0/2
  2448 ;;		On exit  : 3F/0
  2449 ;;		Unchanged: 0/0
  2450 ;; Data sizes:     COMRAM   BANK5   BANK6   BANK7   BANK8
  2451 ;;      Params:         0       0       0       0       0
  2452 ;;      Locals:         1       0       0       0       0
  2453 ;;      Temps:          2       0       0       0       0
  2454 ;;      Totals:         3       0       0       0       0
  2455 ;;Total ram usage:        3 bytes
  2456 ;; Hardware stack levels used: 1
  2457 ;; Hardware stack levels required when called: 4
  2458 ;; This function calls:
  2459 ;;		Nothing
  2460 ;; This function is called by:
  2461 ;;		_reset_init
  2462 ;; This function uses a non-reentrant model
  2463 ;;
  2464                           
  2465                           	psect	text8
  2466  000F74                     __ptext8:
  2467                           	callstack 0
  2468  000F74                     _clock_set:
  2469                           	callstack 121
  2470                           
  2471                           ;incstack = 0
  2472                           ;clock_set@f stored from wreg
  2473  000F74  6E1B               	movwf	clock_set@f^(0+1280),c
  2474                           
  2475                           ;CLOCK.c: 65: void clock_set( uint8_t f );CLOCK.c: 66: {;CLOCK.c: 67:  if(f)
  2476  000F76  501B               	movf	clock_set@f^(0+1280),w,c
  2477  000F78  B4D8               	btfsc	status,2,c
  2478  000F7A  D024               	goto	l442
  2479                           
  2480                           ;CLOCK.c: 68:  {;CLOCK.c: 69:   CLKRCONbits.EN=0;
  2481  000F7C  0100               	movlb	0	; () banked
  2482  000F7E  9F39               	bcf	57,7,b	;volatile
  2483                           
  2484                           ;CLOCK.c: 70:   switch(f)
  2485  000F80  D00D               	goto	l1699
  2486  000F82                     l1691:
  2487                           
  2488                           ; BSR set to: 0
  2489                           ;CLOCK.c: 74:     CLKRCONbits.DIV=0x6;
  2490  000F82  5139               	movf	57,w,b	;volatile
  2491  000F84  0BF8               	andlw	-8
  2492  000F86  0906               	iorlw	6
  2493  000F88  D007               	goto	L5
  2494  000F8A                     l1693:
  2495                           
  2496                           ; BSR set to: 0
  2497                           ;CLOCK.c: 77:     CLKRCONbits.DIV=0x5;
  2498  000F8A  5139               	movf	57,w,b	;volatile
  2499  000F8C  0BF8               	andlw	-8
  2500  000F8E  0905               	iorlw	5
  2501  000F90  D003               	goto	L5
  2502  000F92                     l1695:
  2503                           
  2504                           ; BSR set to: 0
  2505                           ;CLOCK.c: 80:     CLKRCONbits.DIV=0x4;
  2506  000F92  5139               	movf	57,w,b	;volatile
  2507  000F94  0BF8               	andlw	-8
  2508  000F96  0904               	iorlw	4
  2509  000F98                     L5:
  2510  000F98  6F39               	movwf	57,b	;volatile
  2511                           
  2512                           ;CLOCK.c: 81:    break;
  2513  000F9A  D012               	goto	l446
  2514  000F9C                     l1699:
  2515                           
  2516                           ; BSR set to: 0
  2517  000F9C  501B               	movf	clock_set@f^(0+1280),w,c
  2518  000F9E  6E19               	movwf	??_clock_set^(0+1280),c
  2519  000FA0  6A1A               	clrf	(??_clock_set+1)^(0+1280),c
  2520                           
  2521                           ; Switch on 2 bytes has been partitioned into a top level switch of size 1, and 1 sub-sw
      +                          itches
  2522                           ; Switch size 1, requested type "simple"
  2523                           ; Number of cases is 1, Range of values is 0 to 0
  2524                           ; switch strategies available:
  2525                           ; Name         Instructions Cycles
  2526                           ; simple_byte            4     3 (average)
  2527                           ;	Chosen strategy is simple_byte
  2528  000FA2  501A               	movf	(??_clock_set+1)^(0+1280),w,c
  2529  000FA4  0A00               	xorlw	0	; case 0
  2530  000FA6  A4D8               	btfss	status,2,c
  2531  000FA8  D7EC               	goto	l1691
  2532                           
  2533                           ; BSR set to: 0
  2534                           ; Switch size 1, requested type "simple"
  2535                           ; Number of cases is 3, Range of values is 1 to 4
  2536                           ; switch strategies available:
  2537                           ; Name         Instructions Cycles
  2538                           ; simple_byte           10     6 (average)
  2539                           ;	Chosen strategy is simple_byte
  2540  000FAA  5019               	movf	??_clock_set^(0+1280),w,c
  2541  000FAC  0A01               	xorlw	1	; case 1
  2542  000FAE  B4D8               	btfsc	status,2,c
  2543  000FB0  D7E8               	goto	l1691
  2544  000FB2  0A03               	xorlw	3	; case 2
  2545  000FB4  B4D8               	btfsc	status,2,c
  2546  000FB6  D7E9               	goto	l1693
  2547  000FB8  0A06               	xorlw	6	; case 4
  2548  000FBA  B4D8               	btfsc	status,2,c
  2549  000FBC  D7EA               	goto	l1695
  2550  000FBE  D7E1               	goto	l1691
  2551  000FC0                     l446:
  2552                           
  2553                           ; BSR set to: 0
  2554                           ;CLOCK.c: 83:   CLKRCONbits.EN=1;
  2555  000FC0  8F39               	bsf	57,7,b	;volatile
  2556                           
  2557                           ;CLOCK.c: 84:  }
  2558  000FC2  0012               	return	
  2559  000FC4                     l442:
  2560                           
  2561                           ;CLOCK.c: 86:  {;CLOCK.c: 87:   CLKRCONbits.EN=0;
  2562  000FC4  0100               	movlb	0	; () banked
  2563  000FC6  9F39               	bcf	57,7,b	;volatile
  2564                           
  2565                           ; BSR set to: 0
  2566  000FC8  0012               	return		;funcret
  2567  000FCA                     __end_of_clock_set:
  2568                           	callstack 0
  2569                           
  2570 ;; *************** function _print_title *****************
  2571 ;; Defined at:
  2572 ;;		line 147 in file "MAIN.c"
  2573 ;; Parameters:    Size  Location     Type
  2574 ;;		None
  2575 ;; Auto vars:     Size  Location     Type
  2576 ;;  v               1    0        unsigned char 
  2577 ;; Return value:  Size  Location     Type
  2578 ;;                  1    wreg      void 
  2579 ;; Registers used:
  2580 ;;		wreg, fsr1l, fsr1h, fsr2l, fsr2h, status,2, status,0, tblptrl, tblptrh, tblptru, cstack
  2581 ;; Tracked objects:
  2582 ;;		On entry : 0/2
  2583 ;;		On exit  : 3F/5
  2584 ;;		Unchanged: 0/0
  2585 ;; Data sizes:     COMRAM   BANK5   BANK6   BANK7   BANK8
  2586 ;;      Params:         0       0       0       0       0
  2587 ;;      Locals:         0       0       0       0       0
  2588 ;;      Temps:          0       2       0       0       0
  2589 ;;      Totals:         0       2       0       0       0
  2590 ;;Total ram usage:        2 bytes
  2591 ;; Hardware stack levels used: 1
  2592 ;; Hardware stack levels required when called: 14
  2593 ;; This function calls:
  2594 ;;		___lbdiv
  2595 ;;		___lbmod
  2596 ;;		_clear_screen
  2597 ;;		_printf
  2598 ;;		_text_colour
  2599 ;; This function is called by:
  2600 ;;		_main
  2601 ;; This function uses a non-reentrant model
  2602 ;;
  2603                           
  2604                           	psect	text9
  2605  000408                     __ptext9:
  2606                           	callstack 0
  2607  000408                     _print_title:
  2608                           	callstack 112
  2609                           
  2610                           ;MAIN.c: 150:  clear_screen();
  2611                           
  2612                           ; BSR set to: 0
  2613                           ;incstack = 0
  2614  000408  EC22  F00A         	call	_clear_screen	;wreg free
  2615                           
  2616                           ; BSR set to: 5
  2617                           ;MAIN.c: 151:  text_colour(2);
  2618  00040C  0E02               	movlw	2
  2619  00040E  EC0A  F00A         	call	_text_colour
  2620                           
  2621                           ; BSR set to: 5
  2622                           ;MAIN.c: 152:  printf("\r                   #");
  2623  000412  0E8B               	movlw	low STR_3
  2624  000414  6F96               	movwf	printf@fmt& (0+255),b
  2625  000416  0E3E               	movlw	high STR_3
  2626  000418  6F97               	movwf	(printf@fmt+1)& (0+255),b
  2627  00041A  ECDB  F009         	call	_printf	;wreg free
  2628                           
  2629                           ; BSR set to: 5
  2630                           ;MAIN.c: 153:  printf("\r                 ###");
  2631  00041E  0EA1               	movlw	low STR_4
  2632  000420  6F96               	movwf	printf@fmt& (0+255),b
  2633  000422  0E3E               	movlw	high STR_4
  2634  000424  6F97               	movwf	(printf@fmt+1)& (0+255),b
  2635  000426  ECDB  F009         	call	_printf	;wreg free
  2636                           
  2637                           ; BSR set to: 5
  2638                           ;MAIN.c: 154:  printf("\r               ####");
  2639  00042A  0EB7               	movlw	low STR_5
  2640  00042C  6F96               	movwf	printf@fmt& (0+255),b
  2641  00042E  0E3E               	movlw	high STR_5
  2642  000430  6F97               	movwf	(printf@fmt+1)& (0+255),b
  2643  000432  ECDB  F009         	call	_printf	;wreg free
  2644                           
  2645                           ; BSR set to: 5
  2646                           ;MAIN.c: 155:  printf("\r               ##");
  2647  000436  0EF3               	movlw	low STR_6
  2648  000438  6F96               	movwf	printf@fmt& (0+255),b
  2649  00043A  0E3E               	movlw	high STR_6
  2650  00043C  6F97               	movwf	(printf@fmt+1)& (0+255),b
  2651  00043E  ECDB  F009         	call	_printf	;wreg free
  2652                           
  2653                           ; BSR set to: 5
  2654                           ;MAIN.c: 156:  printf("\r        ######   ######");
  2655  000442  0E14               	movlw	low STR_7
  2656  000444  6F96               	movwf	printf@fmt& (0+255),b
  2657  000446  0E3E               	movlw	high STR_7
  2658  000448  6F97               	movwf	(printf@fmt+1)& (0+255),b
  2659  00044A  ECDB  F009         	call	_printf	;wreg free
  2660                           
  2661                           ; BSR set to: 5
  2662                           ;MAIN.c: 157:  printf("\r      ###################");
  2663  00044E  0E90               	movlw	low STR_8
  2664  000450  6F96               	movwf	printf@fmt& (0+255),b
  2665  000452  0E3D               	movlw	high STR_8
  2666  000454  6F97               	movwf	(printf@fmt+1)& (0+255),b
  2667  000456  ECDB  F009         	call	_printf	;wreg free
  2668                           
  2669                           ; BSR set to: 5
  2670                           ;MAIN.c: 158:  text_colour(3);
  2671  00045A  0E03               	movlw	3
  2672  00045C  EC0A  F00A         	call	_text_colour
  2673                           
  2674                           ; BSR set to: 5
  2675                           ;MAIN.c: 159:  printf("\r     ####################");
  2676  000460  0EAB               	movlw	low STR_9
  2677  000462  6F96               	movwf	printf@fmt& (0+255),b
  2678  000464  0E3D               	movlw	high STR_9
  2679  000466  6F97               	movwf	(printf@fmt+1)& (0+255),b
  2680  000468  ECDB  F009         	call	_printf	;wreg free
  2681                           
  2682                           ; BSR set to: 5
  2683                           ;MAIN.c: 160:  printf("\r     ###################");
  2684  00046C  0EE0               	movlw	low STR_10
  2685  00046E  6F96               	movwf	printf@fmt& (0+255),b
  2686  000470  0E3D               	movlw	high STR_10
  2687  000472  6F97               	movwf	(printf@fmt+1)& (0+255),b
  2688  000474  ECDB  F009         	call	_printf	;wreg free
  2689                           
  2690                           ; BSR set to: 5
  2691                           ;MAIN.c: 161:  printf("\r    ###################");
  2692  000478  0E2D               	movlw	low STR_11
  2693  00047A  6F96               	movwf	printf@fmt& (0+255),b
  2694  00047C  0E3E               	movlw	high STR_11
  2695  00047E  6F97               	movwf	(printf@fmt+1)& (0+255),b
  2696  000480  ECDB  F009         	call	_printf	;wreg free
  2697                           
  2698                           ; BSR set to: 5
  2699                           ;MAIN.c: 162:  text_colour(1);
  2700  000484  0E01               	movlw	1
  2701  000486  EC0A  F00A         	call	_text_colour
  2702                           
  2703                           ; BSR set to: 5
  2704                           ;MAIN.c: 163:  printf("\r    ###################");
  2705  00048A  0E2D               	movlw	low STR_11
  2706  00048C  6F96               	movwf	printf@fmt& (0+255),b
  2707  00048E  0E3E               	movlw	high STR_11
  2708  000490  6F97               	movwf	(printf@fmt+1)& (0+255),b
  2709  000492  ECDB  F009         	call	_printf	;wreg free
  2710                           
  2711                           ; BSR set to: 5
  2712                           ;MAIN.c: 164:  printf("\r    ###################");
  2713  000496  0E2D               	movlw	low STR_11
  2714  000498  6F96               	movwf	printf@fmt& (0+255),b
  2715  00049A  0E3E               	movlw	high STR_11
  2716  00049C  6F97               	movwf	(printf@fmt+1)& (0+255),b
  2717  00049E  ECDB  F009         	call	_printf	;wreg free
  2718                           
  2719                           ; BSR set to: 5
  2720                           ;MAIN.c: 165:  printf("\r    ####################");
  2721  0004A2  0EFA               	movlw	low STR_14
  2722  0004A4  6F96               	movwf	printf@fmt& (0+255),b
  2723  0004A6  0E3D               	movlw	high STR_14
  2724  0004A8  6F97               	movwf	(printf@fmt+1)& (0+255),b
  2725  0004AA  ECDB  F009         	call	_printf	;wreg free
  2726                           
  2727                           ; BSR set to: 5
  2728                           ;MAIN.c: 166:  text_colour(5);
  2729  0004AE  0E05               	movlw	5
  2730  0004B0  EC0A  F00A         	call	_text_colour
  2731                           
  2732                           ; BSR set to: 5
  2733                           ;MAIN.c: 167:  printf("\r     #####################");
  2734  0004B4  0E59               	movlw	low STR_15
  2735  0004B6  6F96               	movwf	printf@fmt& (0+255),b
  2736  0004B8  0E3D               	movlw	high STR_15
  2737  0004BA  6F97               	movwf	(printf@fmt+1)& (0+255),b
  2738  0004BC  ECDB  F009         	call	_printf	;wreg free
  2739                           
  2740                           ; BSR set to: 5
  2741                           ;MAIN.c: 168:  printf("\r     #####################");
  2742  0004C0  0E59               	movlw	low STR_15
  2743  0004C2  6F96               	movwf	printf@fmt& (0+255),b
  2744  0004C4  0E3D               	movlw	high STR_15
  2745  0004C6  6F97               	movwf	(printf@fmt+1)& (0+255),b
  2746  0004C8  ECDB  F009         	call	_printf	;wreg free
  2747                           
  2748                           ; BSR set to: 5
  2749                           ;MAIN.c: 169:  printf("\r      ###################");
  2750  0004CC  0E90               	movlw	low STR_8
  2751  0004CE  6F96               	movwf	printf@fmt& (0+255),b
  2752  0004D0  0E3D               	movlw	high STR_8
  2753  0004D2  6F97               	movwf	(printf@fmt+1)& (0+255),b
  2754  0004D4  ECDB  F009         	call	_printf	;wreg free
  2755                           
  2756                           ; BSR set to: 5
  2757                           ;MAIN.c: 170:  text_colour(4);
  2758  0004D8  0E04               	movlw	4
  2759  0004DA  EC0A  F00A         	call	_text_colour
  2760                           
  2761                           ; BSR set to: 5
  2762                           ;MAIN.c: 171:  printf("\r       ##################");
  2763  0004DE  0E75               	movlw	low STR_18
  2764  0004E0  6F96               	movwf	printf@fmt& (0+255),b
  2765  0004E2  0E3D               	movlw	high STR_18
  2766  0004E4  6F97               	movwf	(printf@fmt+1)& (0+255),b
  2767  0004E6  ECDB  F009         	call	_printf	;wreg free
  2768                           
  2769                           ; BSR set to: 5
  2770                           ;MAIN.c: 172:  printf("\r        ################");
  2771  0004EA  0EC6               	movlw	low STR_19
  2772  0004EC  6F96               	movwf	printf@fmt& (0+255),b
  2773  0004EE  0E3D               	movlw	high STR_19
  2774  0004F0  6F97               	movwf	(printf@fmt+1)& (0+255),b
  2775  0004F2  ECDB  F009         	call	_printf	;wreg free
  2776                           
  2777                           ; BSR set to: 5
  2778                           ;MAIN.c: 173:  printf("\r         #####    ####");
  2779  0004F6  0E46               	movlw	low STR_20
  2780  0004F8  6F96               	movwf	printf@fmt& (0+255),b
  2781  0004FA  0E3E               	movlw	high STR_20
  2782  0004FC  6F97               	movwf	(printf@fmt+1)& (0+255),b
  2783  0004FE  ECDB  F009         	call	_printf	;wreg free
  2784                           
  2785                           ; BSR set to: 5
  2786                           ;MAIN.c: 174:  printf("\r");
  2787  000502  0E52               	movlw	low (STR_41+12)
  2788  000504  6F96               	movwf	printf@fmt& (0+255),b
  2789  000506  0E3F               	movlw	high (STR_41+12)
  2790  000508  6F97               	movwf	(printf@fmt+1)& (0+255),b
  2791  00050A  ECDB  F009         	call	_printf	;wreg free
  2792                           
  2793                           ; BSR set to: 5
  2794                           ;MAIN.c: 175:  text_colour(7);
  2795  00050E  0E07               	movlw	7
  2796  000510  EC0A  F00A         	call	_text_colour
  2797                           
  2798                           ; BSR set to: 5
  2799                           ;MAIN.c: 176:  printf("\r     CRAB APPLE BIOS V%u.%u ", v/10,v%10);
  2800  000514  0E1F               	movlw	low STR_22
  2801  000516  6F96               	movwf	printf@fmt& (0+255),b
  2802  000518  0E3D               	movlw	high STR_22
  2803  00051A  6F97               	movwf	(printf@fmt+1)& (0+255),b
  2804  00051C  0E0A               	movlw	10
  2805  00051E  6E19               	movwf	___lbdiv@divisor^(0+1280),c
  2806  000520  0E0B               	movlw	11
  2807  000522  EC98  F008         	call	___lbdiv
  2808  000526  0105               	movlb	5	; () banked
  2809  000528  6F9E               	movwf	??_print_title& (0+255),b
  2810  00052A  519E               	movf	??_print_title& (0+255),w,b
  2811  00052C  6F98               	movwf	(?_printf+2)& (0+255),b
  2812  00052E  6B99               	clrf	(?_printf+3)& (0+255),b
  2813  000530  0E0A               	movlw	10
  2814  000532  6E19               	movwf	___lbmod@divisor^(0+1280),c
  2815  000534  0E0B               	movlw	11
  2816  000536  ECC6  F009         	call	___lbmod
  2817  00053A  0105               	movlb	5	; () banked
  2818  00053C  6F9F               	movwf	(??_print_title+1)& (0+255),b
  2819  00053E  519F               	movf	(??_print_title+1)& (0+255),w,b
  2820  000540  6F9A               	movwf	(?_printf+4)& (0+255),b
  2821  000542  6B9B               	clrf	(?_printf+5)& (0+255),b
  2822  000544  ECDB  F009         	call	_printf	;wreg free
  2823                           
  2824                           ; BSR set to: 5
  2825  000548  0012               	return		;funcret
  2826  00054A                     __end_of_print_title:
  2827                           	callstack 0
  2828                           
  2829 ;; *************** function ___lbmod *****************
  2830 ;; Defined at:
  2831 ;;		line 4 in file "/opt/microchip/xc8/v2.36/pic/sources/c99/common/lbmod.c"
  2832 ;; Parameters:    Size  Location     Type
  2833 ;;  dividend        1    wreg     unsigned char 
  2834 ;;  divisor         1   24[COMRAM] unsigned char 
  2835 ;; Auto vars:     Size  Location     Type
  2836 ;;  dividend        1   25[COMRAM] unsigned char 
  2837 ;;  rem             1   27[COMRAM] unsigned char 
  2838 ;;  counter         1   26[COMRAM] unsigned char 
  2839 ;; Return value:  Size  Location     Type
  2840 ;;                  1    wreg      unsigned char 
  2841 ;; Registers used:
  2842 ;;		wreg, status,2, status,0
  2843 ;; Tracked objects:
  2844 ;;		On entry : 3F/5
  2845 ;;		On exit  : 0/0
  2846 ;;		Unchanged: 0/0
  2847 ;; Data sizes:     COMRAM   BANK5   BANK6   BANK7   BANK8
  2848 ;;      Params:         1       0       0       0       0
  2849 ;;      Locals:         3       0       0       0       0
  2850 ;;      Temps:          0       0       0       0       0
  2851 ;;      Totals:         4       0       0       0       0
  2852 ;;Total ram usage:        4 bytes
  2853 ;; Hardware stack levels used: 1
  2854 ;; Hardware stack levels required when called: 4
  2855 ;; This function calls:
  2856 ;;		Nothing
  2857 ;; This function is called by:
  2858 ;;		_print_title
  2859 ;; This function uses a non-reentrant model
  2860 ;;
  2861                           
  2862                           	psect	text10
  2863  00138C                     __ptext10:
  2864                           	callstack 0
  2865  00138C                     ___lbmod:
  2866                           	callstack 121
  2867                           
  2868                           ; BSR set to: 5
  2869                           ;incstack = 0
  2870                           ;___lbmod@dividend stored from wreg
  2871  00138C  6E1A               	movwf	___lbmod@dividend^(0+1280),c
  2872  00138E  0E08               	movlw	8
  2873  001390  6E1B               	movwf	___lbmod@counter^(0+1280),c
  2874  001392  0E00               	movlw	0
  2875  001394  6E1C               	movwf	___lbmod@rem^(0+1280),c
  2876  001396                     l2877:
  2877  001396  90D8               	bcf	status,0,c
  2878  001398  341A               	rlcf	___lbmod@dividend^(0+1280),w,c
  2879  00139A  341C               	rlcf	___lbmod@rem^(0+1280),w,c
  2880  00139C  6E1C               	movwf	___lbmod@rem^(0+1280),c
  2881  00139E  90D8               	bcf	status,0,c
  2882  0013A0  361A               	rlcf	___lbmod@dividend^(0+1280),f,c
  2883  0013A2  5019               	movf	___lbmod@divisor^(0+1280),w,c
  2884  0013A4  5C1C               	subwf	___lbmod@rem^(0+1280),w,c
  2885  0013A6  A0D8               	btfss	status,0,c
  2886  0013A8  D002               	goto	l2885
  2887  0013AA  5019               	movf	___lbmod@divisor^(0+1280),w,c
  2888  0013AC  5E1C               	subwf	___lbmod@rem^(0+1280),f,c
  2889  0013AE                     l2885:
  2890  0013AE  2E1B               	decfsz	___lbmod@counter^(0+1280),f,c
  2891  0013B0  D7F2               	goto	l2877
  2892  0013B2  501C               	movf	___lbmod@rem^(0+1280),w,c
  2893  0013B4  0012               	return		;funcret
  2894  0013B6                     __end_of___lbmod:
  2895                           	callstack 0
  2896                           
  2897 ;; *************** function ___lbdiv *****************
  2898 ;; Defined at:
  2899 ;;		line 4 in file "/opt/microchip/xc8/v2.36/pic/sources/c99/common/lbdiv.c"
  2900 ;; Parameters:    Size  Location     Type
  2901 ;;  dividend        1    wreg     unsigned char 
  2902 ;;  divisor         1   24[COMRAM] unsigned char 
  2903 ;; Auto vars:     Size  Location     Type
  2904 ;;  dividend        1   25[COMRAM] unsigned char 
  2905 ;;  quotient        1   27[COMRAM] unsigned char 
  2906 ;;  counter         1   26[COMRAM] unsigned char 
  2907 ;; Return value:  Size  Location     Type
  2908 ;;                  1    wreg      unsigned char 
  2909 ;; Registers used:
  2910 ;;		wreg, status,2, status,0
  2911 ;; Tracked objects:
  2912 ;;		On entry : 3F/5
  2913 ;;		On exit  : 0/0
  2914 ;;		Unchanged: 0/0
  2915 ;; Data sizes:     COMRAM   BANK5   BANK6   BANK7   BANK8
  2916 ;;      Params:         1       0       0       0       0
  2917 ;;      Locals:         3       0       0       0       0
  2918 ;;      Temps:          0       0       0       0       0
  2919 ;;      Totals:         4       0       0       0       0
  2920 ;;Total ram usage:        4 bytes
  2921 ;; Hardware stack levels used: 1
  2922 ;; Hardware stack levels required when called: 4
  2923 ;; This function calls:
  2924 ;;		Nothing
  2925 ;; This function is called by:
  2926 ;;		_print_title
  2927 ;; This function uses a non-reentrant model
  2928 ;;
  2929                           
  2930                           	psect	text11
  2931  001130                     __ptext11:
  2932                           	callstack 0
  2933  001130                     ___lbdiv:
  2934                           	callstack 121
  2935                           
  2936                           ;incstack = 0
  2937                           ;___lbdiv@dividend stored from wreg
  2938  001130  6E1A               	movwf	___lbdiv@dividend^(0+1280),c
  2939  001132  0E00               	movlw	0
  2940  001134  6E1C               	movwf	___lbdiv@quotient^(0+1280),c
  2941  001136  5019               	movf	___lbdiv@divisor^(0+1280),w,c
  2942  001138  B4D8               	btfsc	status,2,c
  2943  00113A  D015               	goto	l2871
  2944  00113C  0E01               	movlw	1
  2945  00113E  6E1B               	movwf	___lbdiv@counter^(0+1280),c
  2946  001140  D003               	goto	l2859
  2947  001142                     l2855:
  2948  001142  90D8               	bcf	status,0,c
  2949  001144  3619               	rlcf	___lbdiv@divisor^(0+1280),f,c
  2950  001146  2A1B               	incf	___lbdiv@counter^(0+1280),f,c
  2951  001148                     l2859:
  2952  001148  AE19               	btfss	___lbdiv@divisor^(0+1280),7,c
  2953  00114A  D7FB               	goto	l2855
  2954  00114C                     u1530:
  2955  00114C  90D8               	bcf	status,0,c
  2956  00114E  361C               	rlcf	___lbdiv@quotient^(0+1280),f,c
  2957  001150  5019               	movf	___lbdiv@divisor^(0+1280),w,c
  2958  001152  5C1A               	subwf	___lbdiv@dividend^(0+1280),w,c
  2959  001154  A0D8               	btfss	status,0,c
  2960  001156  D003               	goto	l2867
  2961  001158  5019               	movf	___lbdiv@divisor^(0+1280),w,c
  2962  00115A  5E1A               	subwf	___lbdiv@dividend^(0+1280),f,c
  2963  00115C  801C               	bsf	___lbdiv@quotient^(0+1280),0,c
  2964  00115E                     l2867:
  2965  00115E  90D8               	bcf	status,0,c
  2966  001160  3219               	rrcf	___lbdiv@divisor^(0+1280),f,c
  2967  001162  2E1B               	decfsz	___lbdiv@counter^(0+1280),f,c
  2968  001164  D7F3               	goto	u1530
  2969  001166                     l2871:
  2970  001166  501C               	movf	___lbdiv@quotient^(0+1280),w,c
  2971  001168  0012               	return		;funcret
  2972  00116A                     __end_of___lbdiv:
  2973                           	callstack 0
  2974                           
  2975 ;; *************** function _load_settings *****************
  2976 ;; Defined at:
  2977 ;;		line 378 in file "MAIN.c"
  2978 ;; Parameters:    Size  Location     Type
  2979 ;;		None
  2980 ;; Auto vars:     Size  Location     Type
  2981 ;;  adr             1   34[COMRAM] unsigned char 
  2982 ;; Return value:  Size  Location     Type
  2983 ;;                  1    wreg      void 
  2984 ;; Registers used:
  2985 ;;		wreg, fsr2l, fsr2h, status,2, status,0, cstack
  2986 ;; Tracked objects:
  2987 ;;		On entry : 3F/3
  2988 ;;		On exit  : 38/0
  2989 ;;		Unchanged: 0/0
  2990 ;; Data sizes:     COMRAM   BANK5   BANK6   BANK7   BANK8
  2991 ;;      Params:         0       0       0       0       0
  2992 ;;      Locals:         1       0       0       0       0
  2993 ;;      Temps:          0       0       0       0       0
  2994 ;;      Totals:         1       0       0       0       0
  2995 ;;Total ram usage:        1 bytes
  2996 ;; Hardware stack levels used: 1
  2997 ;; Hardware stack levels required when called: 6
  2998 ;; This function calls:
  2999 ;;		_dfm_read
  3000 ;;		_save_settings
  3001 ;; This function is called by:
  3002 ;;		_main
  3003 ;; This function uses a non-reentrant model
  3004 ;;
  3005                           
  3006                           	psect	text12
  3007  00106A                     __ptext12:
  3008                           	callstack 0
  3009  00106A                     _load_settings:
  3010                           	callstack 120
  3011                           
  3012                           ; BSR set to: 3
  3013                           ;MAIN.c: 380:  uint8_t adr=sizeof(_eprom);
  3014                           
  3015                           ;incstack = 0
  3016  00106A  0E05               	movlw	5
  3017  00106C  6E23               	movwf	load_settings@adr^(0+1280),c
  3018                           
  3019                           ;MAIN.c: 381:  while(adr--)
  3020  00106E  D00C               	goto	l2903
  3021  001070                     l2901:
  3022                           
  3023                           ;MAIN.c: 382:  {;MAIN.c: 383:   eprom.arr[adr]=dfm_read(adr);
  3024  001070  0E3A               	movlw	low _eprom
  3025  001072  2423               	addwf	load_settings@adr^(0+1280),w,c
  3026  001074  6ED9               	movwf	fsr2l,c
  3027  001076  6ADA               	clrf	fsr2h,c
  3028  001078  0E05               	movlw	high _eprom
  3029  00107A  22DA               	addwfc	fsr2h,f,c
  3030  00107C  C523  F519         	movff	load_settings@adr,dfm_read@adr
  3031  001080  6A1A               	clrf	(dfm_read@adr+1)^(0+1280),c
  3032  001082  ECB0  F009         	call	_dfm_read	;wreg free
  3033  001086  6EDF               	movwf	indf2,c
  3034  001088                     l2903:
  3035                           
  3036                           ;MAIN.c: 381:  while(adr--)
  3037  001088  0623               	decf	load_settings@adr^(0+1280),f,c
  3038  00108A  2823               	incf	load_settings@adr^(0+1280),w,c
  3039  00108C  A4D8               	btfss	status,2,c
  3040  00108E  D7F0               	goto	l2901
  3041                           
  3042                           ;MAIN.c: 385:  if(eprom.settings.ver!=11)
  3043  001090  0E0B               	movlw	11
  3044  001092  183A               	xorwf	_eprom^(0+1280),w,c
  3045  001094  B4D8               	btfsc	status,2,c
  3046  001096  0012               	return	
  3047                           
  3048                           ;MAIN.c: 386:  {;MAIN.c: 387:   eprom.settings.ver=11;
  3049  001098  0E0B               	movlw	11
  3050  00109A  6E3A               	movwf	_eprom^(0+1280),c
  3051                           
  3052                           ;MAIN.c: 388:   eprom.settings.colour=7;
  3053  00109C  0E07               	movlw	7
  3054  00109E  6E3E               	movwf	(_eprom+4)^(0+1280),c
  3055                           
  3056                           ;MAIN.c: 389:   eprom.settings.baud=192;
  3057  0010A0  0E00               	movlw	0
  3058  0010A2  6E3D               	movwf	(_eprom+3)^(0+1280),c
  3059  0010A4  0EC0               	movlw	192
  3060  0010A6  6E3C               	movwf	(_eprom+2)^(0+1280),c
  3061                           
  3062                           ;MAIN.c: 390:   eprom.settings.speed=1;
  3063  0010A8  0E01               	movlw	1
  3064  0010AA  6E3B               	movwf	(_eprom+1)^(0+1280),c
  3065                           
  3066                           ;MAIN.c: 391:   save_settings();
  3067  0010AC  EC10  F008         	call	_save_settings	;wreg free
  3068  0010B0  0012               	return		;funcret
  3069  0010B2                     __end_of_load_settings:
  3070                           	callstack 0
  3071                           
  3072 ;; *************** function _clock_init *****************
  3073 ;; Defined at:
  3074 ;;		line 41 in file "CLOCK.c"
  3075 ;; Parameters:    Size  Location     Type
  3076 ;;		None
  3077 ;; Auto vars:     Size  Location     Type
  3078 ;;		None
  3079 ;; Return value:  Size  Location     Type
  3080 ;;                  1    wreg      void 
  3081 ;; Registers used:
  3082 ;;		wreg, status,2
  3083 ;; Tracked objects:
  3084 ;;		On entry : 3F/2
  3085 ;;		On exit  : 3F/0
  3086 ;;		Unchanged: 0/0
  3087 ;; Data sizes:     COMRAM   BANK5   BANK6   BANK7   BANK8
  3088 ;;      Params:         0       0       0       0       0
  3089 ;;      Locals:         0       0       0       0       0
  3090 ;;      Temps:          0       0       0       0       0
  3091 ;;      Totals:         0       0       0       0       0
  3092 ;;Total ram usage:        0 bytes
  3093 ;; Hardware stack levels used: 1
  3094 ;; Hardware stack levels required when called: 4
  3095 ;; This function calls:
  3096 ;;		Nothing
  3097 ;; This function is called by:
  3098 ;;		_main
  3099 ;; This function uses a non-reentrant model
  3100 ;;
  3101                           
  3102                           	psect	text13
  3103  0011DA                     __ptext13:
  3104                           	callstack 0
  3105  0011DA                     _clock_init:
  3106                           	callstack 122
  3107                           
  3108                           ; BSR set to: 2
  3109                           ;CLOCK.c: 44:  PMD2bits.DSM1MD = 0;
  3110                           
  3111                           ;incstack = 0
  3112  0011DA  0100               	movlb	0	; () banked
  3113  0011DC  9B65               	bcf	101,5,b	;volatile
  3114                           
  3115                           ;CLOCK.c: 45:  MD1CON0bits.EN = 0;
  3116  0011DE  9F6A               	bcf	106,7,b	;volatile
  3117                           
  3118                           ;CLOCK.c: 46:  MD1CON1bits.CHSYNC = 0;
  3119  0011E0  996B               	bcf	107,4,b	;volatile
  3120                           
  3121                           ;CLOCK.c: 47:  MD1CON1bits.CLSYNC = 1;
  3122  0011E2  816B               	bsf	107,0,b	;volatile
  3123                           
  3124                           ; BSR set to: 0
  3125                           ;CLOCK.c: 48:  MD1CARHbits.MD1CH = 0b1011;
  3126  0011E4  0E0B               	movlw	11
  3127  0011E6  6F6E               	movwf	110,b	;volatile
  3128                           
  3129                           ;CLOCK.c: 49:  MD1CARLbits.MD1CL = 0b0100;
  3130  0011E8  0E04               	movlw	4
  3131  0011EA  6F6D               	movwf	109,b	;volatile
  3132                           
  3133                           ;CLOCK.c: 50:  MD1SRCbits.MS = 0b01100;
  3134  0011EC  0E0C               	movlw	12
  3135  0011EE  6F6C               	movwf	108,b	;volatile
  3136                           
  3137                           ; BSR set to: 0
  3138                           ;CLOCK.c: 51:  MD1CON0bits.OPOL = 0;
  3139  0011F0  996A               	bcf	106,4,b	;volatile
  3140                           
  3141                           ; BSR set to: 0
  3142                           ;CLOCK.c: 52:  MD1CON0bits.EN = 1;
  3143  0011F2  8F6A               	bsf	106,7,b	;volatile
  3144                           
  3145                           ; BSR set to: 0
  3146                           ;CLOCK.c: 54:  PMD0bits.CLKRMD = 0;
  3147  0011F4  9363               	bcf	99,1,b	;volatile
  3148                           
  3149                           ; BSR set to: 0
  3150                           ;CLOCK.c: 55:  CLKRCONbits.EN = 0;
  3151  0011F6  9F39               	bcf	57,7,b	;volatile
  3152                           
  3153                           ;CLOCK.c: 56:  CLKRCLK = 0b0000;
  3154  0011F8  0E00               	movlw	0
  3155  0011FA  6F3A               	movwf	58,b	;volatile
  3156                           
  3157                           ;CLOCK.c: 57:  CLKRCONbits.DIV = 0x6;
  3158  0011FC  5139               	movf	57,w,b	;volatile
  3159  0011FE  0BF8               	andlw	-8
  3160  001200  0906               	iorlw	6
  3161  001202  6F39               	movwf	57,b	;volatile
  3162                           
  3163                           ;CLOCK.c: 58:  CLKRCONbits.DC = 0b10;
  3164  001204  5139               	movf	57,w,b	;volatile
  3165  001206  0BE7               	andlw	-25
  3166  001208  0910               	iorlw	16
  3167  00120A  6F39               	movwf	57,b	;volatile
  3168                           
  3169                           ; BSR set to: 0
  3170  00120C  0012               	return		;funcret
  3171  00120E                     __end_of_clock_init:
  3172                           	callstack 0
  3173                           
  3174 ;; *************** function _clc2_init *****************
  3175 ;; Defined at:
  3176 ;;		line 112 in file "CLC.c"
  3177 ;; Parameters:    Size  Location     Type
  3178 ;;		None
  3179 ;; Auto vars:     Size  Location     Type
  3180 ;;		None
  3181 ;; Return value:  Size  Location     Type
  3182 ;;                  1    wreg      void 
  3183 ;; Registers used:
  3184 ;;		wreg, status,2
  3185 ;; Tracked objects:
  3186 ;;		On entry : 3F/3
  3187 ;;		On exit  : 3F/3
  3188 ;;		Unchanged: 0/0
  3189 ;; Data sizes:     COMRAM   BANK5   BANK6   BANK7   BANK8
  3190 ;;      Params:         0       0       0       0       0
  3191 ;;      Locals:         0       0       0       0       0
  3192 ;;      Temps:          0       0       0       0       0
  3193 ;;      Totals:         0       0       0       0       0
  3194 ;;Total ram usage:        0 bytes
  3195 ;; Hardware stack levels used: 1
  3196 ;; Hardware stack levels required when called: 4
  3197 ;; This function calls:
  3198 ;;		Nothing
  3199 ;; This function is called by:
  3200 ;;		_main
  3201 ;; This function uses a non-reentrant model
  3202 ;;
  3203                           
  3204                           	psect	text14
  3205  000CEA                     __ptext14:
  3206                           	callstack 0
  3207  000CEA                     _clc2_init:
  3208                           	callstack 122
  3209                           
  3210                           ; BSR set to: 3
  3211                           ;CLC.c: 114:  PMD4bits.CLC2MD=0;
  3212                           
  3213                           ; BSR set to: 0
  3214                           ;incstack = 0
  3215  000CEA  0100               	movlb	0	; () banked
  3216  000CEC  9567               	bcf	103,2,b	;volatile
  3217                           
  3218                           ; BSR set to: 0
  3219                           ;CLC.c: 115:  CLCSELECTbits.SLCT=0b01;
  3220  000CEE  0E01               	movlw	1
  3221  000CF0  6FD5               	movwf	213,b	;volatile
  3222                           
  3223                           ; BSR set to: 0
  3224                           ;CLC.c: 117:  CLCnCONbits.EN=0;
  3225  000CF2  9FD6               	bcf	214,7,b	;volatile
  3226                           
  3227                           ;CLC.c: 119:  CLCnSEL0bits.D1S=0;
  3228  000CF4  0E00               	movlw	0
  3229  000CF6  6FD8               	movwf	216,b	;volatile
  3230                           
  3231                           ;CLC.c: 120:  CLCnSEL1bits.D2S=1;
  3232  000CF8  0E01               	movlw	1
  3233  000CFA  6FD9               	movwf	217,b	;volatile
  3234                           
  3235                           ;CLC.c: 121:  CLCnSEL2bits.D3S=2;
  3236  000CFC  0E02               	movlw	2
  3237  000CFE  6FDA               	movwf	218,b	;volatile
  3238                           
  3239                           ;CLC.c: 122:  CLCnSEL3bits.D4S=32;
  3240  000D00  0E20               	movlw	32
  3241  000D02  6FDB               	movwf	219,b	;volatile
  3242                           
  3243                           ; BSR set to: 0
  3244                           ;CLC.c: 124:  CLCnGLS0bits.G1D1N=0;
  3245  000D04  91DC               	bcf	220,0,b	;volatile
  3246                           
  3247                           ; BSR set to: 0
  3248                           ;CLC.c: 125:  CLCnGLS0bits.G1D1T=0;
  3249  000D06  93DC               	bcf	220,1,b	;volatile
  3250                           
  3251                           ; BSR set to: 0
  3252                           ;CLC.c: 126:  CLCnGLS0bits.G1D2N=0;
  3253  000D08  95DC               	bcf	220,2,b	;volatile
  3254                           
  3255                           ; BSR set to: 0
  3256                           ;CLC.c: 127:  CLCnGLS0bits.G1D2T=0;
  3257  000D0A  97DC               	bcf	220,3,b	;volatile
  3258                           
  3259                           ; BSR set to: 0
  3260                           ;CLC.c: 128:  CLCnGLS0bits.G1D3N=0;
  3261  000D0C  99DC               	bcf	220,4,b	;volatile
  3262                           
  3263                           ; BSR set to: 0
  3264                           ;CLC.c: 129:  CLCnGLS0bits.G1D3T=0;
  3265  000D0E  9BDC               	bcf	220,5,b	;volatile
  3266                           
  3267                           ; BSR set to: 0
  3268                           ;CLC.c: 130:  CLCnGLS0bits.G1D4N=0;
  3269  000D10  9DDC               	bcf	220,6,b	;volatile
  3270                           
  3271                           ; BSR set to: 0
  3272                           ;CLC.c: 131:  CLCnGLS0bits.G1D4T=0;
  3273  000D12  9FDC               	bcf	220,7,b	;volatile
  3274                           
  3275                           ; BSR set to: 0
  3276                           ;CLC.c: 132:  CLCnPOLbits.G1POL=1;
  3277  000D14  81D7               	bsf	215,0,b	;volatile
  3278                           
  3279                           ; BSR set to: 0
  3280                           ;CLC.c: 134:  CLCnGLS1bits.G2D1N=0;
  3281  000D16  91DD               	bcf	221,0,b	;volatile
  3282                           
  3283                           ; BSR set to: 0
  3284                           ;CLC.c: 135:  CLCnGLS1bits.G2D1T=0;
  3285  000D18  93DD               	bcf	221,1,b	;volatile
  3286                           
  3287                           ; BSR set to: 0
  3288                           ;CLC.c: 136:  CLCnGLS1bits.G2D2N=0;
  3289  000D1A  95DD               	bcf	221,2,b	;volatile
  3290                           
  3291                           ; BSR set to: 0
  3292                           ;CLC.c: 137:  CLCnGLS1bits.G2D2T=0;
  3293  000D1C  97DD               	bcf	221,3,b	;volatile
  3294                           
  3295                           ; BSR set to: 0
  3296                           ;CLC.c: 138:  CLCnGLS1bits.G2D3N=0;
  3297  000D1E  99DD               	bcf	221,4,b	;volatile
  3298                           
  3299                           ; BSR set to: 0
  3300                           ;CLC.c: 139:  CLCnGLS1bits.G2D3T=0;
  3301  000D20  9BDD               	bcf	221,5,b	;volatile
  3302                           
  3303                           ; BSR set to: 0
  3304                           ;CLC.c: 140:  CLCnGLS1bits.G2D4N=0;
  3305  000D22  9DDD               	bcf	221,6,b	;volatile
  3306                           
  3307                           ; BSR set to: 0
  3308                           ;CLC.c: 141:  CLCnGLS1bits.G2D4T=0;
  3309  000D24  9FDD               	bcf	221,7,b	;volatile
  3310                           
  3311                           ; BSR set to: 0
  3312                           ;CLC.c: 142:  CLCnPOLbits.G2POL=1;
  3313  000D26  83D7               	bsf	215,1,b	;volatile
  3314                           
  3315                           ; BSR set to: 0
  3316                           ;CLC.c: 144:  CLCnGLS2bits.G3D1N=0;
  3317  000D28  91DE               	bcf	222,0,b	;volatile
  3318                           
  3319                           ; BSR set to: 0
  3320                           ;CLC.c: 145:  CLCnGLS2bits.G3D1T=0;
  3321  000D2A  93DE               	bcf	222,1,b	;volatile
  3322                           
  3323                           ; BSR set to: 0
  3324                           ;CLC.c: 146:  CLCnGLS2bits.G3D2N=0;
  3325  000D2C  95DE               	bcf	222,2,b	;volatile
  3326                           
  3327                           ; BSR set to: 0
  3328                           ;CLC.c: 147:  CLCnGLS2bits.G3D2T=0;
  3329  000D2E  97DE               	bcf	222,3,b	;volatile
  3330                           
  3331                           ; BSR set to: 0
  3332                           ;CLC.c: 148:  CLCnGLS2bits.G3D3N=0;
  3333  000D30  99DE               	bcf	222,4,b	;volatile
  3334                           
  3335                           ; BSR set to: 0
  3336                           ;CLC.c: 149:  CLCnGLS2bits.G3D3T=0;
  3337  000D32  9BDE               	bcf	222,5,b	;volatile
  3338                           
  3339                           ; BSR set to: 0
  3340                           ;CLC.c: 150:  CLCnGLS2bits.G3D4N=0;
  3341  000D34  9DDE               	bcf	222,6,b	;volatile
  3342                           
  3343                           ; BSR set to: 0
  3344                           ;CLC.c: 151:  CLCnGLS2bits.G3D4T=0;
  3345  000D36  9FDE               	bcf	222,7,b	;volatile
  3346                           
  3347                           ; BSR set to: 0
  3348                           ;CLC.c: 152:  CLCnPOLbits.G3POL=1;
  3349  000D38  85D7               	bsf	215,2,b	;volatile
  3350                           
  3351                           ; BSR set to: 0
  3352                           ;CLC.c: 154:  CLCnGLS3bits.G4D1N=0;
  3353  000D3A  91DF               	bcf	223,0,b	;volatile
  3354                           
  3355                           ; BSR set to: 0
  3356                           ;CLC.c: 155:  CLCnGLS3bits.G4D1T=0;
  3357  000D3C  93DF               	bcf	223,1,b	;volatile
  3358                           
  3359                           ; BSR set to: 0
  3360                           ;CLC.c: 156:  CLCnGLS3bits.G4D2N=0;
  3361  000D3E  95DF               	bcf	223,2,b	;volatile
  3362                           
  3363                           ; BSR set to: 0
  3364                           ;CLC.c: 157:  CLCnGLS3bits.G4D2T=0;
  3365  000D40  97DF               	bcf	223,3,b	;volatile
  3366                           
  3367                           ; BSR set to: 0
  3368                           ;CLC.c: 158:  CLCnGLS3bits.G4D3N=0;
  3369  000D42  99DF               	bcf	223,4,b	;volatile
  3370                           
  3371                           ; BSR set to: 0
  3372                           ;CLC.c: 159:  CLCnGLS3bits.G4D3T=0;
  3373  000D44  9BDF               	bcf	223,5,b	;volatile
  3374                           
  3375                           ; BSR set to: 0
  3376                           ;CLC.c: 160:  CLCnGLS3bits.G4D4N=0;
  3377  000D46  9DDF               	bcf	223,6,b	;volatile
  3378                           
  3379                           ; BSR set to: 0
  3380                           ;CLC.c: 161:  CLCnGLS3bits.G4D4T=0;
  3381  000D48  9FDF               	bcf	223,7,b	;volatile
  3382                           
  3383                           ; BSR set to: 0
  3384                           ;CLC.c: 162:  CLCnPOLbits.G4POL=1;
  3385  000D4A  87D7               	bsf	215,3,b	;volatile
  3386                           
  3387                           ;CLC.c: 164:  CLCnCONbits.MODE=0b010;
  3388  000D4C  51D6               	movf	214,w,b	;volatile
  3389  000D4E  0BF8               	andlw	-8
  3390  000D50  0902               	iorlw	2
  3391  000D52  6FD6               	movwf	214,b	;volatile
  3392                           
  3393                           ; BSR set to: 0
  3394                           ;CLC.c: 166:  CLCnPOLbits.POL=0;
  3395  000D54  9FD7               	bcf	215,7,b	;volatile
  3396                           
  3397                           ; BSR set to: 0
  3398                           ;CLC.c: 168:  CLCnCONbits.INTP=0;
  3399  000D56  99D6               	bcf	214,4,b	;volatile
  3400                           
  3401                           ; BSR set to: 0
  3402                           ;CLC.c: 169:  CLCnCONbits.INTN=0;
  3403  000D58  97D6               	bcf	214,3,b	;volatile
  3404                           
  3405                           ; BSR set to: 0
  3406                           ;CLC.c: 171:  CLCnCONbits.EN=1;
  3407  000D5A  8FD6               	bsf	214,7,b	;volatile
  3408                           
  3409                           ; BSR set to: 0
  3410                           ;CLC.c: 173:  IPR5bits.CLC2IP=1;
  3411  000D5C  0103               	movlb	3	; () banked
  3412  000D5E  8B6C               	bsf	108,5,b	;volatile
  3413                           
  3414                           ; BSR set to: 3
  3415                           ;CLC.c: 174:  PIR5bits.CLC2IF=0;
  3416  000D60  9AB8               	bcf	184,5,c	;volatile
  3417                           
  3418                           ; BSR set to: 3
  3419                           ;CLC.c: 175:  PIE5bits.CLC2IE=0;
  3420  000D62  9AAD               	bcf	173,5,c	;volatile
  3421                           
  3422                           ; BSR set to: 3
  3423  000D64  0012               	return		;funcret
  3424  000D66                     __end_of_clc2_init:
  3425                           	callstack 0
  3426                           
  3427 ;; *************** function _clc1_init *****************
  3428 ;; Defined at:
  3429 ;;		line 42 in file "CLC.c"
  3430 ;; Parameters:    Size  Location     Type
  3431 ;;		None
  3432 ;; Auto vars:     Size  Location     Type
  3433 ;;		None
  3434 ;; Return value:  Size  Location     Type
  3435 ;;                  1    wreg      void 
  3436 ;; Registers used:
  3437 ;;		wreg, status,2
  3438 ;; Tracked objects:
  3439 ;;		On entry : 3F/0
  3440 ;;		On exit  : 3F/3
  3441 ;;		Unchanged: 0/0
  3442 ;; Data sizes:     COMRAM   BANK5   BANK6   BANK7   BANK8
  3443 ;;      Params:         0       0       0       0       0
  3444 ;;      Locals:         0       0       0       0       0
  3445 ;;      Temps:          0       0       0       0       0
  3446 ;;      Totals:         0       0       0       0       0
  3447 ;;Total ram usage:        0 bytes
  3448 ;; Hardware stack levels used: 1
  3449 ;; Hardware stack levels required when called: 4
  3450 ;; This function calls:
  3451 ;;		Nothing
  3452 ;; This function is called by:
  3453 ;;		_main
  3454 ;; This function uses a non-reentrant model
  3455 ;;
  3456                           
  3457                           	psect	text15
  3458  000D66                     __ptext15:
  3459                           	callstack 0
  3460  000D66                     _clc1_init:
  3461                           	callstack 122
  3462                           
  3463                           ; BSR set to: 0
  3464                           ;CLC.c: 44:  PMD4bits.CLC1MD=0;
  3465                           
  3466                           ; BSR set to: 3
  3467                           ;incstack = 0
  3468  000D66  9367               	bcf	103,1,b	;volatile
  3469                           
  3470                           ; BSR set to: 0
  3471                           ;CLC.c: 45:  CLCSELECTbits.SLCT=0b00;
  3472  000D68  0E00               	movlw	0
  3473  000D6A  6FD5               	movwf	213,b	;volatile
  3474                           
  3475                           ; BSR set to: 0
  3476                           ;CLC.c: 47:  CLCnCONbits.EN=0;
  3477  000D6C  9FD6               	bcf	214,7,b	;volatile
  3478                           
  3479                           ;CLC.c: 49:  CLCnSEL0bits.D1S=0;
  3480  000D6E  0E00               	movlw	0
  3481  000D70  6FD8               	movwf	216,b	;volatile
  3482                           
  3483                           ;CLC.c: 50:  CLCnSEL1bits.D2S=1;
  3484  000D72  0E01               	movlw	1
  3485  000D74  6FD9               	movwf	217,b	;volatile
  3486                           
  3487                           ;CLC.c: 51:  CLCnSEL2bits.D3S=2;
  3488  000D76  0E02               	movlw	2
  3489  000D78  6FDA               	movwf	218,b	;volatile
  3490                           
  3491                           ;CLC.c: 52:  CLCnSEL3bits.D4S=32;
  3492  000D7A  0E20               	movlw	32
  3493  000D7C  6FDB               	movwf	219,b	;volatile
  3494                           
  3495                           ; BSR set to: 0
  3496                           ;CLC.c: 54:  CLCnGLS0bits.G1D1N=0;
  3497  000D7E  91DC               	bcf	220,0,b	;volatile
  3498                           
  3499                           ; BSR set to: 0
  3500                           ;CLC.c: 55:  CLCnGLS0bits.G1D1T=1;
  3501  000D80  83DC               	bsf	220,1,b	;volatile
  3502                           
  3503                           ; BSR set to: 0
  3504                           ;CLC.c: 56:  CLCnGLS0bits.G1D2N=1;
  3505  000D82  85DC               	bsf	220,2,b	;volatile
  3506                           
  3507                           ; BSR set to: 0
  3508                           ;CLC.c: 57:  CLCnGLS0bits.G1D2T=0;
  3509  000D84  97DC               	bcf	220,3,b	;volatile
  3510                           
  3511                           ; BSR set to: 0
  3512                           ;CLC.c: 58:  CLCnGLS0bits.G1D3N=0;
  3513  000D86  99DC               	bcf	220,4,b	;volatile
  3514                           
  3515                           ; BSR set to: 0
  3516                           ;CLC.c: 59:  CLCnGLS0bits.G1D3T=0;
  3517  000D88  9BDC               	bcf	220,5,b	;volatile
  3518                           
  3519                           ; BSR set to: 0
  3520                           ;CLC.c: 60:  CLCnGLS0bits.G1D4N=1;
  3521  000D8A  8DDC               	bsf	220,6,b	;volatile
  3522                           
  3523                           ; BSR set to: 0
  3524                           ;CLC.c: 61:  CLCnGLS0bits.G1D4T=0;
  3525  000D8C  9FDC               	bcf	220,7,b	;volatile
  3526                           
  3527                           ; BSR set to: 0
  3528                           ;CLC.c: 62:  CLCnPOLbits.G1POL=1;
  3529  000D8E  81D7               	bsf	215,0,b	;volatile
  3530                           
  3531                           ; BSR set to: 0
  3532                           ;CLC.c: 64:  CLCnGLS1bits.G2D1N=0;
  3533  000D90  91DD               	bcf	221,0,b	;volatile
  3534                           
  3535                           ; BSR set to: 0
  3536                           ;CLC.c: 65:  CLCnGLS1bits.G2D1T=0;
  3537  000D92  93DD               	bcf	221,1,b	;volatile
  3538                           
  3539                           ; BSR set to: 0
  3540                           ;CLC.c: 66:  CLCnGLS1bits.G2D2N=0;
  3541  000D94  95DD               	bcf	221,2,b	;volatile
  3542                           
  3543                           ; BSR set to: 0
  3544                           ;CLC.c: 67:  CLCnGLS1bits.G2D2T=0;
  3545  000D96  97DD               	bcf	221,3,b	;volatile
  3546                           
  3547                           ; BSR set to: 0
  3548                           ;CLC.c: 68:  CLCnGLS1bits.G2D3N=0;
  3549  000D98  99DD               	bcf	221,4,b	;volatile
  3550                           
  3551                           ; BSR set to: 0
  3552                           ;CLC.c: 69:  CLCnGLS1bits.G2D3T=0;
  3553  000D9A  9BDD               	bcf	221,5,b	;volatile
  3554                           
  3555                           ; BSR set to: 0
  3556                           ;CLC.c: 70:  CLCnGLS1bits.G2D4N=0;
  3557  000D9C  9DDD               	bcf	221,6,b	;volatile
  3558                           
  3559                           ; BSR set to: 0
  3560                           ;CLC.c: 71:  CLCnGLS1bits.G2D4T=0;
  3561  000D9E  9FDD               	bcf	221,7,b	;volatile
  3562                           
  3563                           ; BSR set to: 0
  3564                           ;CLC.c: 72:  CLCnPOLbits.G2POL=1;
  3565  000DA0  83D7               	bsf	215,1,b	;volatile
  3566                           
  3567                           ; BSR set to: 0
  3568                           ;CLC.c: 74:  CLCnGLS2bits.G3D1N=0;
  3569  000DA2  91DE               	bcf	222,0,b	;volatile
  3570                           
  3571                           ; BSR set to: 0
  3572                           ;CLC.c: 75:  CLCnGLS2bits.G3D1T=0;
  3573  000DA4  93DE               	bcf	222,1,b	;volatile
  3574                           
  3575                           ; BSR set to: 0
  3576                           ;CLC.c: 76:  CLCnGLS2bits.G3D2N=0;
  3577  000DA6  95DE               	bcf	222,2,b	;volatile
  3578                           
  3579                           ; BSR set to: 0
  3580                           ;CLC.c: 77:  CLCnGLS2bits.G3D2T=0;
  3581  000DA8  97DE               	bcf	222,3,b	;volatile
  3582                           
  3583                           ; BSR set to: 0
  3584                           ;CLC.c: 78:  CLCnGLS2bits.G3D3N=0;
  3585  000DAA  99DE               	bcf	222,4,b	;volatile
  3586                           
  3587                           ; BSR set to: 0
  3588                           ;CLC.c: 79:  CLCnGLS2bits.G3D3T=0;
  3589  000DAC  9BDE               	bcf	222,5,b	;volatile
  3590                           
  3591                           ; BSR set to: 0
  3592                           ;CLC.c: 80:  CLCnGLS2bits.G3D4N=0;
  3593  000DAE  9DDE               	bcf	222,6,b	;volatile
  3594                           
  3595                           ; BSR set to: 0
  3596                           ;CLC.c: 81:  CLCnGLS2bits.G3D4T=0;
  3597  000DB0  9FDE               	bcf	222,7,b	;volatile
  3598                           
  3599                           ; BSR set to: 0
  3600                           ;CLC.c: 82:  CLCnPOLbits.G3POL=1;
  3601  000DB2  85D7               	bsf	215,2,b	;volatile
  3602                           
  3603                           ; BSR set to: 0
  3604                           ;CLC.c: 84:  CLCnGLS3bits.G4D1N=0;
  3605  000DB4  91DF               	bcf	223,0,b	;volatile
  3606                           
  3607                           ; BSR set to: 0
  3608                           ;CLC.c: 85:  CLCnGLS3bits.G4D1T=0;
  3609  000DB6  93DF               	bcf	223,1,b	;volatile
  3610                           
  3611                           ; BSR set to: 0
  3612                           ;CLC.c: 86:  CLCnGLS3bits.G4D2N=0;
  3613  000DB8  95DF               	bcf	223,2,b	;volatile
  3614                           
  3615                           ; BSR set to: 0
  3616                           ;CLC.c: 87:  CLCnGLS3bits.G4D2T=0;
  3617  000DBA  97DF               	bcf	223,3,b	;volatile
  3618                           
  3619                           ; BSR set to: 0
  3620                           ;CLC.c: 88:  CLCnGLS3bits.G4D3N=0;
  3621  000DBC  99DF               	bcf	223,4,b	;volatile
  3622                           
  3623                           ; BSR set to: 0
  3624                           ;CLC.c: 89:  CLCnGLS3bits.G4D3T=0;
  3625  000DBE  9BDF               	bcf	223,5,b	;volatile
  3626                           
  3627                           ; BSR set to: 0
  3628                           ;CLC.c: 90:  CLCnGLS3bits.G4D4N=0;
  3629  000DC0  9DDF               	bcf	223,6,b	;volatile
  3630                           
  3631                           ; BSR set to: 0
  3632                           ;CLC.c: 91:  CLCnGLS3bits.G4D4T=0;
  3633  000DC2  9FDF               	bcf	223,7,b	;volatile
  3634                           
  3635                           ; BSR set to: 0
  3636                           ;CLC.c: 92:  CLCnPOLbits.G4POL=1;
  3637  000DC4  87D7               	bsf	215,3,b	;volatile
  3638                           
  3639                           ;CLC.c: 94:  CLCnCONbits.MODE=0b010;
  3640  000DC6  51D6               	movf	214,w,b	;volatile
  3641  000DC8  0BF8               	andlw	-8
  3642  000DCA  0902               	iorlw	2
  3643  000DCC  6FD6               	movwf	214,b	;volatile
  3644                           
  3645                           ; BSR set to: 0
  3646                           ;CLC.c: 96:  CLCnPOLbits.POL=0;
  3647  000DCE  9FD7               	bcf	215,7,b	;volatile
  3648                           
  3649                           ; BSR set to: 0
  3650                           ;CLC.c: 98:  CLCnCONbits.INTP=1;
  3651  000DD0  89D6               	bsf	214,4,b	;volatile
  3652                           
  3653                           ; BSR set to: 0
  3654                           ;CLC.c: 99:  CLCnCONbits.INTN=0;
  3655  000DD2  97D6               	bcf	214,3,b	;volatile
  3656                           
  3657                           ; BSR set to: 0
  3658                           ;CLC.c: 101:  CLCnCONbits.EN=1;
  3659  000DD4  8FD6               	bsf	214,7,b	;volatile
  3660                           
  3661                           ; BSR set to: 0
  3662                           ;CLC.c: 103:  IPR0bits.CLC1IP=1;
  3663  000DD6  0103               	movlb	3	; () banked
  3664  000DD8  8B67               	bsf	103,5,b	;volatile
  3665                           
  3666                           ; BSR set to: 3
  3667                           ;CLC.c: 104:  PIR0bits.CLC1IF=0;
  3668  000DDA  9AB3               	bcf	179,5,c	;volatile
  3669                           
  3670                           ; BSR set to: 3
  3671                           ;CLC.c: 105:  PIE0bits.CLC1IE=1;
  3672  000DDC  8AA8               	bsf	168,5,c	;volatile
  3673                           
  3674                           ; BSR set to: 3
  3675  000DDE  0012               	return		;funcret
  3676  000DE0                     __end_of_clc1_init:
  3677                           	callstack 0
  3678                           
  3679 ;; *************** function _bios_menu *****************
  3680 ;; Defined at:
  3681 ;;		line 183 in file "MAIN.c"
  3682 ;; Parameters:    Size  Location     Type
  3683 ;;		None
  3684 ;; Auto vars:     Size  Location     Type
  3685 ;;  w               1   66[BANK5 ] unsigned char 
  3686 ;; Return value:  Size  Location     Type
  3687 ;;                  1    wreg      void 
  3688 ;; Registers used:
  3689 ;;		wreg, fsr1l, fsr1h, fsr2l, fsr2h, status,2, status,0, tblptrl, tblptrh, tblptru, cstack
  3690 ;; Tracked objects:
  3691 ;;		On entry : 3F/5
  3692 ;;		On exit  : 0/0
  3693 ;;		Unchanged: 0/0
  3694 ;; Data sizes:     COMRAM   BANK5   BANK6   BANK7   BANK8
  3695 ;;      Params:         0       0       0       0       0
  3696 ;;      Locals:         0       1       0       0       0
  3697 ;;      Temps:          0       0       0       0       0
  3698 ;;      Totals:         0       1       0       0       0
  3699 ;;Total ram usage:        1 bytes
  3700 ;; Hardware stack levels used: 1
  3701 ;; Hardware stack levels required when called: 16
  3702 ;; This function calls:
  3703 ;;		_bios_menu_top
  3704 ;;		_bios_waiting
  3705 ;;		_getch
  3706 ;;		_kbhit
  3707 ;; This function is called by:
  3708 ;;		_main
  3709 ;; This function uses a non-reentrant model
  3710 ;;
  3711                           
  3712                           	psect	text16
  3713  0012D8                     __ptext16:
  3714                           	callstack 0
  3715  0012D8                     _bios_menu:
  3716                           	callstack 110
  3717                           
  3718                           ; BSR set to: 5
  3719                           ;MAIN.c: 185:  uint8_t w=20;
  3720                           
  3721                           ; BSR set to: 3
  3722                           ;incstack = 0
  3723  0012D8  0E14               	movlw	20
  3724  0012DA  6FA2               	movwf	bios_menu@w& (0+255),b
  3725                           
  3726                           ;MAIN.c: 186:  while(w--)
  3727  0012DC  D00F               	goto	l3593
  3728  0012DE                     l3583:
  3729                           
  3730                           ; BSR set to: 5
  3731                           ;MAIN.c: 187:  {;MAIN.c: 188:   if(kbhit())
  3732  0012DE  EC4A  F00A         	call	_kbhit	;wreg free
  3733  0012E2  0900               	iorlw	0
  3734  0012E4  B4D8               	btfsc	status,2,c
  3735  0012E6  D008               	goto	l3591
  3736                           
  3737                           ;MAIN.c: 189:   {;MAIN.c: 190:    if(getch()==' ')
  3738  0012E8  EC22  F009         	call	_getch	;wreg free
  3739  0012EC  0A20               	xorlw	32
  3740  0012EE  A4D8               	btfss	status,2,c
  3741  0012F0  0012               	return	
  3742                           
  3743                           ;MAIN.c: 191:    {;MAIN.c: 192:     bios_menu_top();
  3744  0012F2  EC36  F006         	call	_bios_menu_top	;wreg free
  3745  0012F6  0012               	return	
  3746  0012F8                     l3591:
  3747                           
  3748                           ;MAIN.c: 196:   bios_waiting();
  3749  0012F8  ECA4  F005         	call	_bios_waiting	;wreg free
  3750  0012FC                     l3593:
  3751                           
  3752                           ; BSR set to: 5
  3753                           ;MAIN.c: 186:  while(w--)
  3754  0012FC  07A2               	decf	bios_menu@w& (0+255),f,b
  3755  0012FE  29A2               	incf	bios_menu@w& (0+255),w,b
  3756  001300  B4D8               	btfsc	status,2,c
  3757  001302  0012               	return	
  3758  001304  D7EC               	goto	l3583
  3759  001306                     __end_of_bios_menu:
  3760                           	callstack 0
  3761                           
  3762 ;; *************** function _bios_waiting *****************
  3763 ;; Defined at:
  3764 ;;		line 204 in file "MAIN.c"
  3765 ;; Parameters:    Size  Location     Type
  3766 ;;		None
  3767 ;; Auto vars:     Size  Location     Type
  3768 ;;		None
  3769 ;; Return value:  Size  Location     Type
  3770 ;;                  1    wreg      void 
  3771 ;; Registers used:
  3772 ;;		wreg, fsr1l, fsr1h, fsr2l, fsr2h, status,2, status,0, tblptrl, tblptrh, tblptru, cstack
  3773 ;; Tracked objects:
  3774 ;;		On entry : 0/5
  3775 ;;		On exit  : 3F/5
  3776 ;;		Unchanged: 0/0
  3777 ;; Data sizes:     COMRAM   BANK5   BANK6   BANK7   BANK8
  3778 ;;      Params:         0       0       0       0       0
  3779 ;;      Locals:         0       0       0       0       0
  3780 ;;      Temps:          0       2       0       0       0
  3781 ;;      Totals:         0       2       0       0       0
  3782 ;;Total ram usage:        2 bytes
  3783 ;; Hardware stack levels used: 1
  3784 ;; Hardware stack levels required when called: 12
  3785 ;; This function calls:
  3786 ;;		_printf
  3787 ;; This function is called by:
  3788 ;;		_bios_menu
  3789 ;; This function uses a non-reentrant model
  3790 ;;
  3791                           
  3792                           	psect	text17
  3793  000B48                     __ptext17:
  3794                           	callstack 0
  3795  000B48                     _bios_waiting:
  3796                           	callstack 113
  3797                           
  3798                           ;MAIN.c: 206:  static uint8_t i=0;;MAIN.c: 207:  switch(i++)
  3799                           
  3800                           ;incstack = 0
  3801  000B48  D01E               	goto	l3515
  3802  000B4A                     l3503:
  3803                           
  3804                           ; BSR set to: 5
  3805                           ;MAIN.c: 210:    printf("\b|");
  3806  000B4A  0EFC               	movlw	low STR_23
  3807  000B4C  6F96               	movwf	printf@fmt& (0+255),b
  3808  000B4E  0E3F               	movlw	high STR_23
  3809  000B50  6F97               	movwf	(printf@fmt+1)& (0+255),b
  3810  000B52  ECDB  F009         	call	_printf	;wreg free
  3811                           
  3812                           ;MAIN.c: 211:    break;
  3813  000B56  D02D               	goto	l3517
  3814  000B58                     l3505:
  3815                           
  3816                           ; BSR set to: 5
  3817                           ;MAIN.c: 213:    printf("\b/");
  3818  000B58  0EF6               	movlw	low STR_24
  3819  000B5A  6F96               	movwf	printf@fmt& (0+255),b
  3820  000B5C  0E3F               	movlw	high STR_24
  3821  000B5E  6F97               	movwf	(printf@fmt+1)& (0+255),b
  3822  000B60  ECDB  F009         	call	_printf	;wreg free
  3823                           
  3824                           ;MAIN.c: 214:    break;
  3825  000B64  D026               	goto	l3517
  3826  000B66                     l3507:
  3827                           
  3828                           ; BSR set to: 5
  3829                           ;MAIN.c: 216:    printf("\b-");
  3830  000B66  0EF3               	movlw	low STR_25
  3831  000B68  6F96               	movwf	printf@fmt& (0+255),b
  3832  000B6A  0E3F               	movlw	high STR_25
  3833  000B6C  6F97               	movwf	(printf@fmt+1)& (0+255),b
  3834  000B6E  ECDB  F009         	call	_printf	;wreg free
  3835                           
  3836                           ;MAIN.c: 217:    break;
  3837  000B72  D01F               	goto	l3517
  3838  000B74                     l3509:
  3839                           
  3840                           ; BSR set to: 5
  3841                           ;MAIN.c: 219:    printf("\b\\");
  3842  000B74  0EF9               	movlw	low STR_26
  3843  000B76  6F96               	movwf	printf@fmt& (0+255),b
  3844  000B78  0E3F               	movlw	high STR_26
  3845  000B7A  6F97               	movwf	(printf@fmt+1)& (0+255),b
  3846  000B7C  ECDB  F009         	call	_printf	;wreg free
  3847                           
  3848                           ; BSR set to: 5
  3849                           ;MAIN.c: 220:    i=0;
  3850  000B80  0E00               	movlw	0
  3851  000B82  6FA7               	movwf	bios_waiting@i& (0+255),b
  3852                           
  3853                           ;MAIN.c: 221:    break;
  3854  000B84  D016               	goto	l3517
  3855  000B86                     l3515:
  3856  000B86  0105               	movlb	5	; () banked
  3857  000B88  2BA7               	incf	bios_waiting@i& (0+255),f,b
  3858  000B8A  05A7               	decf	bios_waiting@i& (0+255),w,b
  3859  000B8C  6F9E               	movwf	??_bios_waiting& (0+255),b
  3860  000B8E  6B9F               	clrf	(??_bios_waiting+1)& (0+255),b
  3861                           
  3862                           ; Switch on 2 bytes has been partitioned into a top level switch of size 1, and 1 sub-sw
      +                          itches
  3863                           ; Switch size 1, requested type "simple"
  3864                           ; Number of cases is 1, Range of values is 0 to 0
  3865                           ; switch strategies available:
  3866                           ; Name         Instructions Cycles
  3867                           ; simple_byte            4     3 (average)
  3868                           ;	Chosen strategy is simple_byte
  3869  000B90  519F               	movf	(??_bios_waiting+1)& (0+255),w,b
  3870  000B92  0A00               	xorlw	0	; case 0
  3871  000B94  A4D8               	btfss	status,2,c
  3872  000B96  D00D               	goto	l3517
  3873                           
  3874                           ; BSR set to: 5
  3875                           ; Switch size 1, requested type "simple"
  3876                           ; Number of cases is 4, Range of values is 0 to 3
  3877                           ; switch strategies available:
  3878                           ; Name         Instructions Cycles
  3879                           ; simple_byte           13     7 (average)
  3880                           ;	Chosen strategy is simple_byte
  3881  000B98  519E               	movf	??_bios_waiting& (0+255),w,b
  3882  000B9A  0A00               	xorlw	0	; case 0
  3883  000B9C  B4D8               	btfsc	status,2,c
  3884  000B9E  D7D5               	goto	l3503
  3885  000BA0  0A01               	xorlw	1	; case 1
  3886  000BA2  B4D8               	btfsc	status,2,c
  3887  000BA4  D7D9               	goto	l3505
  3888  000BA6  0A03               	xorlw	3	; case 2
  3889  000BA8  B4D8               	btfsc	status,2,c
  3890  000BAA  D7DD               	goto	l3507
  3891  000BAC  0A01               	xorlw	1	; case 3
  3892  000BAE  B4D8               	btfsc	status,2,c
  3893  000BB0  D7E1               	goto	l3509
  3894  000BB2                     l3517:
  3895                           
  3896                           ; BSR set to: 5
  3897                           ;MAIN.c: 223:  _delay((unsigned long)((100)*(64000000/4000.0)));
  3898  000BB2  0E09               	movlw	9
  3899  000BB4  0105               	movlb	5	; () banked
  3900  000BB6  6F9F               	movwf	(??_bios_waiting+1)& (0+255),b
  3901  000BB8  0E1E               	movlw	30
  3902  000BBA  6F9E               	movwf	??_bios_waiting& (0+255),b
  3903  000BBC  0EE4               	movlw	228
  3904  000BBE                     u2207:
  3905  000BBE  2EE8               	decfsz	wreg,f,c
  3906  000BC0  D7FE               	bra	u2207
  3907  000BC2  2F9E               	decfsz	??_bios_waiting& (0+255),f,b
  3908  000BC4  D7FC               	bra	u2207
  3909  000BC6  2F9F               	decfsz	(??_bios_waiting+1)& (0+255),f,b
  3910  000BC8  D7FA               	bra	u2207
  3911  000BCA  F000               	nop	
  3912                           
  3913                           ;MAIN.c: 224:  printf("\b ");
  3914  000BCC  0EF0               	movlw	low STR_27
  3915  000BCE  0105               	movlb	5	; () banked
  3916  000BD0  6F96               	movwf	printf@fmt& (0+255),b
  3917  000BD2  0E3F               	movlw	high STR_27
  3918  000BD4  6F97               	movwf	(printf@fmt+1)& (0+255),b
  3919  000BD6  ECDB  F009         	call	_printf	;wreg free
  3920                           
  3921                           ; BSR set to: 5
  3922  000BDA  0012               	return		;funcret
  3923  000BDC                     __end_of_bios_waiting:
  3924                           	callstack 0
  3925                           
  3926 ;; *************** function _bios_menu_top *****************
  3927 ;; Defined at:
  3928 ;;		line 231 in file "MAIN.c"
  3929 ;; Parameters:    Size  Location     Type
  3930 ;;		None
  3931 ;; Auto vars:     Size  Location     Type
  3932 ;;  m               1   65[BANK5 ] unsigned char 
  3933 ;; Return value:  Size  Location     Type
  3934 ;;                  1    wreg      void 
  3935 ;; Registers used:
  3936 ;;		wreg, fsr1l, fsr1h, fsr2l, fsr2h, status,2, status,0, tblptrl, tblptrh, tblptru, cstack
  3937 ;; Tracked objects:
  3938 ;;		On entry : 0/5
  3939 ;;		On exit  : 0/0
  3940 ;;		Unchanged: 0/0
  3941 ;; Data sizes:     COMRAM   BANK5   BANK6   BANK7   BANK8
  3942 ;;      Params:         0       0       0       0       0
  3943 ;;      Locals:         0       1       0       0       0
  3944 ;;      Temps:          0       0       0       0       0
  3945 ;;      Totals:         0       1       0       0       0
  3946 ;;Total ram usage:        1 bytes
  3947 ;; Hardware stack levels used: 1
  3948 ;; Hardware stack levels required when called: 15
  3949 ;; This function calls:
  3950 ;;		_bios_menu_baud
  3951 ;;		_bios_menu_colour
  3952 ;;		_bios_menu_speed
  3953 ;;		_clear_screen
  3954 ;;		_getch
  3955 ;;		_kbhit
  3956 ;;		_printf
  3957 ;; This function is called by:
  3958 ;;		_bios_menu
  3959 ;; This function uses a non-reentrant model
  3960 ;;
  3961                           
  3962                           	psect	text18
  3963  000C6C                     __ptext18:
  3964                           	callstack 0
  3965  000C6C                     _bios_menu_top:
  3966                           	callstack 110
  3967                           
  3968                           ;MAIN.c: 233:  uint8_t m=0;
  3969                           
  3970                           ; BSR set to: 5
  3971                           ;incstack = 0
  3972  000C6C  0E00               	movlw	0
  3973  000C6E  0105               	movlb	5	; () banked
  3974  000C70  6FA1               	movwf	bios_menu_top@m& (0+255),b
  3975                           
  3976                           ;MAIN.c: 234:  while(m!='\e')
  3977  000C72  D034               	goto	l3499
  3978  000C74                     l3481:
  3979                           
  3980                           ; BSR set to: 5
  3981                           ;MAIN.c: 235:  {;MAIN.c: 236:   clear_screen();
  3982  000C74  EC22  F00A         	call	_clear_screen	;wreg free
  3983                           
  3984                           ;MAIN.c: 237:   printf ("\r\t1 - PROCESSOR SPEED\r");
  3985  000C78  0E5E               	movlw	low STR_28
  3986  000C7A  6F96               	movwf	printf@fmt& (0+255),b
  3987  000C7C  0E3E               	movlw	high STR_28
  3988  000C7E  6F97               	movwf	(printf@fmt+1)& (0+255),b
  3989  000C80  ECDB  F009         	call	_printf	;wreg free
  3990                           
  3991                           ;MAIN.c: 238:   printf ("\r\t2 - UART BAUD RATE\r");
  3992  000C84  0E75               	movlw	low STR_29
  3993  000C86  6F96               	movwf	printf@fmt& (0+255),b
  3994  000C88  0E3E               	movlw	high STR_29
  3995  000C8A  6F97               	movwf	(printf@fmt+1)& (0+255),b
  3996  000C8C  ECDB  F009         	call	_printf	;wreg free
  3997                           
  3998                           ;MAIN.c: 239:   printf ("\r\t3 - TEXT COLOUR\r");
  3999  000C90  0EE0               	movlw	low STR_30
  4000  000C92  6F96               	movwf	printf@fmt& (0+255),b
  4001  000C94  0E3E               	movlw	high STR_30
  4002  000C96  6F97               	movwf	(printf@fmt+1)& (0+255),b
  4003  000C98  ECDB  F009         	call	_printf	;wreg free
  4004                           
  4005                           ;MAIN.c: 240:   printf ("\r\t[ESC] - EXIT\r");
  4006  000C9C  0E17               	movlw	low STR_31
  4007  000C9E  6F96               	movwf	printf@fmt& (0+255),b
  4008  000CA0  0E3F               	movlw	high STR_31
  4009  000CA2  6F97               	movwf	(printf@fmt+1)& (0+255),b
  4010  000CA4  ECDB  F009         	call	_printf	;wreg free
  4011  000CA8                     l3483:
  4012  000CA8  EC4A  F00A         	call	_kbhit	;wreg free
  4013  000CAC  0900               	iorlw	0
  4014  000CAE  B4D8               	btfsc	status,2,c
  4015  000CB0  D7FB               	goto	l3483
  4016                           
  4017                           ;MAIN.c: 242:   m=getch();
  4018  000CB2  EC22  F009         	call	_getch	;wreg free
  4019  000CB6  0105               	movlb	5	; () banked
  4020  000CB8  6FA1               	movwf	bios_menu_top@m& (0+255),b
  4021                           
  4022                           ; BSR set to: 5
  4023                           ;MAIN.c: 243:   if(m=='1') bios_menu_speed();
  4024  000CBA  0E31               	movlw	49
  4025  000CBC  19A1               	xorwf	bios_menu_top@m& (0+255),w,b
  4026  000CBE  B4D8               	btfsc	status,2,c
  4027                           
  4028                           ; BSR set to: 5
  4029  000CC0  ECEE  F005         	call	_bios_menu_speed	;wreg free
  4030                           
  4031                           ;MAIN.c: 244:   if(m=='2') bios_menu_baud();
  4032  000CC4  0E32               	movlw	50
  4033  000CC6  0105               	movlb	5	; () banked
  4034  000CC8  19A1               	xorwf	bios_menu_top@m& (0+255),w,b
  4035  000CCA  B4D8               	btfsc	status,2,c
  4036                           
  4037                           ; BSR set to: 5
  4038  000CCC  ECFF  F003         	call	_bios_menu_baud	;wreg free
  4039                           
  4040                           ;MAIN.c: 245:   if(m=='3') bios_menu_colour();
  4041  000CD0  0E33               	movlw	51
  4042  000CD2  0105               	movlb	5	; () banked
  4043  000CD4  19A1               	xorwf	bios_menu_top@m& (0+255),w,b
  4044  000CD6  B4D8               	btfsc	status,2,c
  4045                           
  4046                           ; BSR set to: 5
  4047  000CD8  ECA5  F002         	call	_bios_menu_colour	;wreg free
  4048  000CDC                     l3499:
  4049                           
  4050                           ;MAIN.c: 234:  while(m!='\e')
  4051  000CDC  0E1B               	movlw	27
  4052  000CDE  0105               	movlb	5	; () banked
  4053  000CE0  19A1               	xorwf	bios_menu_top@m& (0+255),w,b
  4054  000CE2  A4D8               	btfss	status,2,c
  4055  000CE4  D7C7               	goto	l3481
  4056                           
  4057                           ; BSR set to: 5
  4058  000CE6  00FF               	reset		;# 
  4059  000CE8  0012               	return		;funcret
  4060  000CEA                     __end_of_bios_menu_top:
  4061                           	callstack 0
  4062                           
  4063 ;; *************** function _bios_menu_speed *****************
  4064 ;; Defined at:
  4065 ;;		line 254 in file "MAIN.c"
  4066 ;; Parameters:    Size  Location     Type
  4067 ;;		None
  4068 ;; Auto vars:     Size  Location     Type
  4069 ;;  m               1   62[BANK5 ] unsigned char 
  4070 ;; Return value:  Size  Location     Type
  4071 ;;                  1    wreg      void 
  4072 ;; Registers used:
  4073 ;;		wreg, fsr1l, fsr1h, fsr2l, fsr2h, status,2, status,0, tblptrl, tblptrh, tblptru, cstack
  4074 ;; Tracked objects:
  4075 ;;		On entry : 3F/5
  4076 ;;		On exit  : 38/0
  4077 ;;		Unchanged: 0/0
  4078 ;; Data sizes:     COMRAM   BANK5   BANK6   BANK7   BANK8
  4079 ;;      Params:         0       0       0       0       0
  4080 ;;      Locals:         0       1       0       0       0
  4081 ;;      Temps:          0       0       0       0       0
  4082 ;;      Totals:         0       1       0       0       0
  4083 ;;Total ram usage:        1 bytes
  4084 ;; Hardware stack levels used: 1
  4085 ;; Hardware stack levels required when called: 14
  4086 ;; This function calls:
  4087 ;;		_clear_screen
  4088 ;;		_getch
  4089 ;;		_kbhit
  4090 ;;		_printf
  4091 ;;		_save_settings
  4092 ;; This function is called by:
  4093 ;;		_bios_menu_top
  4094 ;; This function uses a non-reentrant model
  4095 ;;
  4096                           
  4097                           	psect	text19
  4098  000BDC                     __ptext19:
  4099                           	callstack 0
  4100  000BDC                     _bios_menu_speed:
  4101                           	callstack 110
  4102                           
  4103                           ; BSR set to: 5
  4104                           ;MAIN.c: 256:  uint8_t m=0;
  4105                           
  4106                           ;incstack = 0
  4107  000BDC  0E00               	movlw	0
  4108  000BDE  6F9E               	movwf	bios_menu_speed@m& (0+255),b
  4109                           
  4110                           ;MAIN.c: 257:  while(m!='\e')
  4111  000BE0  D03E               	goto	l3407
  4112  000BE2                     l3389:
  4113                           
  4114                           ; BSR set to: 5
  4115                           ;MAIN.c: 258:  {;MAIN.c: 259:   clear_screen();
  4116  000BE2  EC22  F00A         	call	_clear_screen	;wreg free
  4117                           
  4118                           ;MAIN.c: 260:   printf("\r\tPROCESSOR SPEED : %u MHz\r",eprom.settings.speed );
  4119  000BE6  0E3D               	movlw	low STR_32
  4120  000BE8  6F96               	movwf	printf@fmt& (0+255),b
  4121  000BEA  0E3D               	movlw	high STR_32
  4122  000BEC  6F97               	movwf	(printf@fmt+1)& (0+255),b
  4123  000BEE  C53B  F598         	movff	_eprom+1,?_printf+2
  4124  000BF2  6B99               	clrf	(?_printf+3)& (0+255),b
  4125  000BF4  ECDB  F009         	call	_printf	;wreg free
  4126                           
  4127                           ;MAIN.c: 261:   printf ("\r\t1 - 1MHz\r");
  4128  000BF8  0EBA               	movlw	low STR_33
  4129  000BFA  6F96               	movwf	printf@fmt& (0+255),b
  4130  000BFC  0E3F               	movlw	high STR_33
  4131  000BFE  6F97               	movwf	(printf@fmt+1)& (0+255),b
  4132  000C00  ECDB  F009         	call	_printf	;wreg free
  4133                           
  4134                           ;MAIN.c: 262:   printf ("\r\t2 - 2MHz\r");
  4135  000C04  0EC6               	movlw	low STR_34
  4136  000C06  6F96               	movwf	printf@fmt& (0+255),b
  4137  000C08  0E3F               	movlw	high STR_34
  4138  000C0A  6F97               	movwf	(printf@fmt+1)& (0+255),b
  4139  000C0C  ECDB  F009         	call	_printf	;wreg free
  4140                           
  4141                           ;MAIN.c: 263:   printf ("\r\t3 - 4MHz\r");
  4142  000C10  0ED2               	movlw	low STR_35
  4143  000C12  6F96               	movwf	printf@fmt& (0+255),b
  4144  000C14  0E3F               	movlw	high STR_35
  4145  000C16  6F97               	movwf	(printf@fmt+1)& (0+255),b
  4146  000C18  ECDB  F009         	call	_printf	;wreg free
  4147                           
  4148                           ;MAIN.c: 264:   printf ("\r\t[ESC] - EXIT\r");
  4149  000C1C  0E17               	movlw	low STR_31
  4150  000C1E  6F96               	movwf	printf@fmt& (0+255),b
  4151  000C20  0E3F               	movlw	high STR_31
  4152  000C22  6F97               	movwf	(printf@fmt+1)& (0+255),b
  4153  000C24  ECDB  F009         	call	_printf	;wreg free
  4154  000C28                     l3391:
  4155  000C28  EC4A  F00A         	call	_kbhit	;wreg free
  4156  000C2C  0900               	iorlw	0
  4157  000C2E  B4D8               	btfsc	status,2,c
  4158  000C30  D7FB               	goto	l3391
  4159                           
  4160                           ;MAIN.c: 266:   m=getch();
  4161  000C32  EC22  F009         	call	_getch	;wreg free
  4162  000C36  0105               	movlb	5	; () banked
  4163  000C38  6F9E               	movwf	bios_menu_speed@m& (0+255),b
  4164                           
  4165                           ; BSR set to: 5
  4166                           ;MAIN.c: 267:   if(m=='1') eprom.settings.speed=1;
  4167  000C3A  0E31               	movlw	49
  4168  000C3C  199E               	xorwf	bios_menu_speed@m& (0+255),w,b
  4169  000C3E  A4D8               	btfss	status,2,c
  4170  000C40  D002               	goto	l3399
  4171                           
  4172                           ; BSR set to: 5
  4173  000C42  0E01               	movlw	1
  4174  000C44  6E3B               	movwf	(_eprom+1)^(0+1280),c
  4175  000C46                     l3399:
  4176                           
  4177                           ; BSR set to: 5
  4178                           ;MAIN.c: 268:   if(m=='2') eprom.settings.speed=2;
  4179  000C46  0E32               	movlw	50
  4180  000C48  199E               	xorwf	bios_menu_speed@m& (0+255),w,b
  4181  000C4A  A4D8               	btfss	status,2,c
  4182  000C4C  D002               	goto	l3403
  4183                           
  4184                           ; BSR set to: 5
  4185  000C4E  0E02               	movlw	2
  4186  000C50  6E3B               	movwf	(_eprom+1)^(0+1280),c
  4187  000C52                     l3403:
  4188                           
  4189                           ; BSR set to: 5
  4190                           ;MAIN.c: 269:   if(m=='3') eprom.settings.speed=4;
  4191  000C52  0E33               	movlw	51
  4192  000C54  199E               	xorwf	bios_menu_speed@m& (0+255),w,b
  4193  000C56  A4D8               	btfss	status,2,c
  4194  000C58  D002               	goto	l3407
  4195                           
  4196                           ; BSR set to: 5
  4197  000C5A  0E04               	movlw	4
  4198  000C5C  6E3B               	movwf	(_eprom+1)^(0+1280),c
  4199  000C5E                     l3407:
  4200                           
  4201                           ; BSR set to: 5
  4202                           ;MAIN.c: 257:  while(m!='\e')
  4203  000C5E  0E1B               	movlw	27
  4204  000C60  199E               	xorwf	bios_menu_speed@m& (0+255),w,b
  4205  000C62  A4D8               	btfss	status,2,c
  4206  000C64  D7BE               	goto	l3389
  4207                           
  4208                           ; BSR set to: 5
  4209                           ;MAIN.c: 271:  save_settings();
  4210  000C66  EC10  F008         	call	_save_settings	;wreg free
  4211  000C6A  0012               	return		;funcret
  4212  000C6C                     __end_of_bios_menu_speed:
  4213                           	callstack 0
  4214                           
  4215 ;; *************** function _bios_menu_colour *****************
  4216 ;; Defined at:
  4217 ;;		line 304 in file "MAIN.c"
  4218 ;; Parameters:    Size  Location     Type
  4219 ;;		None
  4220 ;; Auto vars:     Size  Location     Type
  4221 ;;  m               1   64[BANK5 ] unsigned char 
  4222 ;; Return value:  Size  Location     Type
  4223 ;;                  1    wreg      void 
  4224 ;; Registers used:
  4225 ;;		wreg, fsr1l, fsr1h, fsr2l, fsr2h, status,2, status,0, tblptrl, tblptrh, tblptru, cstack
  4226 ;; Tracked objects:
  4227 ;;		On entry : 3F/5
  4228 ;;		On exit  : 38/0
  4229 ;;		Unchanged: 0/0
  4230 ;; Data sizes:     COMRAM   BANK5   BANK6   BANK7   BANK8
  4231 ;;      Params:         0       0       0       0       0
  4232 ;;      Locals:         0       1       0       0       0
  4233 ;;      Temps:          0       0       0       0       0
  4234 ;;      Totals:         0       1       0       0       0
  4235 ;;Total ram usage:        1 bytes
  4236 ;; Hardware stack levels used: 1
  4237 ;; Hardware stack levels required when called: 14
  4238 ;; This function calls:
  4239 ;;		_clear_screen
  4240 ;;		_getch
  4241 ;;		_kbhit
  4242 ;;		_menu_print_colour
  4243 ;;		_printf
  4244 ;;		_save_settings
  4245 ;;		_text_colour
  4246 ;; This function is called by:
  4247 ;;		_bios_menu_top
  4248 ;; This function uses a non-reentrant model
  4249 ;;
  4250                           
  4251                           	psect	text20
  4252  00054A                     __ptext20:
  4253                           	callstack 0
  4254  00054A                     _bios_menu_colour:
  4255                           	callstack 110
  4256                           
  4257                           ; BSR set to: 5
  4258                           ;MAIN.c: 306:  uint8_t m=0;
  4259                           
  4260                           ;incstack = 0
  4261  00054A  0E00               	movlw	0
  4262  00054C  6FA0               	movwf	bios_menu_colour@m& (0+255),b
  4263                           
  4264                           ;MAIN.c: 307:  while(m!='\e')
  4265  00054E  D085               	goto	l3475
  4266  000550                     l3441:
  4267                           
  4268                           ; BSR set to: 5
  4269                           ;MAIN.c: 308:  {;MAIN.c: 309:   clear_screen();
  4270  000550  EC22  F00A         	call	_clear_screen	;wreg free
  4271                           
  4272                           ;MAIN.c: 310:   printf("\r\tTEXT COLOUR : ");
  4273  000554  0E06               	movlw	low STR_43
  4274  000556  6F96               	movwf	printf@fmt& (0+255),b
  4275  000558  0E3F               	movlw	high STR_43
  4276  00055A  6F97               	movwf	(printf@fmt+1)& (0+255),b
  4277  00055C  ECDB  F009         	call	_printf	;wreg free
  4278                           
  4279                           ;MAIN.c: 311:   menu_print_colour();
  4280  000560  EC09  F005         	call	_menu_print_colour	;wreg free
  4281                           
  4282                           ;MAIN.c: 312:   text_colour(1);
  4283  000564  0E01               	movlw	1
  4284  000566  EC0A  F00A         	call	_text_colour
  4285                           
  4286                           ;MAIN.c: 313:   printf ("\r\t1 - RED\r");
  4287  00056A  0EDE               	movlw	low STR_44
  4288  00056C  6F96               	movwf	printf@fmt& (0+255),b
  4289  00056E  0E3F               	movlw	high STR_44
  4290  000570  6F97               	movwf	(printf@fmt+1)& (0+255),b
  4291  000572  ECDB  F009         	call	_printf	;wreg free
  4292                           
  4293                           ;MAIN.c: 314:   text_colour(2);
  4294  000576  0E02               	movlw	2
  4295  000578  EC0A  F00A         	call	_text_colour
  4296                           
  4297                           ;MAIN.c: 315:   printf ("\r\t2 - GREEN\r");
  4298  00057C  0E89               	movlw	low STR_45
  4299  00057E  6F96               	movwf	printf@fmt& (0+255),b
  4300  000580  0E3F               	movlw	high STR_45
  4301  000582  6F97               	movwf	(printf@fmt+1)& (0+255),b
  4302  000584  ECDB  F009         	call	_printf	;wreg free
  4303                           
  4304                           ;MAIN.c: 316:   text_colour(3);
  4305  000588  0E03               	movlw	3
  4306  00058A  EC0A  F00A         	call	_text_colour
  4307                           
  4308                           ;MAIN.c: 317:   printf ("\r\t3 - YELLOW\r");
  4309  00058E  0E54               	movlw	low STR_46
  4310  000590  6F96               	movwf	printf@fmt& (0+255),b
  4311  000592  0E3F               	movlw	high STR_46
  4312  000594  6F97               	movwf	(printf@fmt+1)& (0+255),b
  4313  000596  ECDB  F009         	call	_printf	;wreg free
  4314                           
  4315                           ;MAIN.c: 318:   text_colour(4);
  4316  00059A  0E04               	movlw	4
  4317  00059C  EC0A  F00A         	call	_text_colour
  4318                           
  4319                           ;MAIN.c: 319:   printf ("\r\t4 - BLUE\r");
  4320  0005A0  0EA2               	movlw	low STR_47
  4321  0005A2  6F96               	movwf	printf@fmt& (0+255),b
  4322  0005A4  0E3F               	movlw	high STR_47
  4323  0005A6  6F97               	movwf	(printf@fmt+1)& (0+255),b
  4324  0005A8  ECDB  F009         	call	_printf	;wreg free
  4325                           
  4326                           ;MAIN.c: 320:   text_colour(5);
  4327  0005AC  0E05               	movlw	5
  4328  0005AE  EC0A  F00A         	call	_text_colour
  4329                           
  4330                           ;MAIN.c: 321:   printf ("\r\t5 - MAGENTA\r");
  4331  0005B2  0E37               	movlw	low STR_48
  4332  0005B4  6F96               	movwf	printf@fmt& (0+255),b
  4333  0005B6  0E3F               	movlw	high STR_48
  4334  0005B8  6F97               	movwf	(printf@fmt+1)& (0+255),b
  4335  0005BA  ECDB  F009         	call	_printf	;wreg free
  4336                           
  4337                           ;MAIN.c: 322:   text_colour(6);
  4338  0005BE  0E06               	movlw	6
  4339  0005C0  EC0A  F00A         	call	_text_colour
  4340                           
  4341                           ;MAIN.c: 323:   printf ("\r\t6 - CYAN\r");
  4342  0005C4  0EAE               	movlw	low STR_49
  4343  0005C6  6F96               	movwf	printf@fmt& (0+255),b
  4344  0005C8  0E3F               	movlw	high STR_49
  4345  0005CA  6F97               	movwf	(printf@fmt+1)& (0+255),b
  4346  0005CC  ECDB  F009         	call	_printf	;wreg free
  4347                           
  4348                           ;MAIN.c: 324:   text_colour(7);
  4349  0005D0  0E07               	movlw	7
  4350  0005D2  EC0A  F00A         	call	_text_colour
  4351                           
  4352                           ;MAIN.c: 325:   printf ("\r\t7 - WHITE\r");
  4353  0005D6  0E7C               	movlw	low STR_50
  4354  0005D8  6F96               	movwf	printf@fmt& (0+255),b
  4355  0005DA  0E3F               	movlw	high STR_50
  4356  0005DC  6F97               	movwf	(printf@fmt+1)& (0+255),b
  4357  0005DE  ECDB  F009         	call	_printf	;wreg free
  4358                           
  4359                           ;MAIN.c: 326:   text_colour(eprom.settings.colour);
  4360  0005E2  503E               	movf	(_eprom+4)^(0+1280),w,c
  4361  0005E4  EC0A  F00A         	call	_text_colour
  4362                           
  4363                           ;MAIN.c: 327:   printf ("\r\t[ESC] - EXIT\r");
  4364  0005E8  0E17               	movlw	low STR_31
  4365  0005EA  6F96               	movwf	printf@fmt& (0+255),b
  4366  0005EC  0E3F               	movlw	high STR_31
  4367  0005EE  6F97               	movwf	(printf@fmt+1)& (0+255),b
  4368  0005F0  ECDB  F009         	call	_printf	;wreg free
  4369  0005F4                     l3443:
  4370  0005F4  EC4A  F00A         	call	_kbhit	;wreg free
  4371  0005F8  0900               	iorlw	0
  4372  0005FA  B4D8               	btfsc	status,2,c
  4373  0005FC  D7FB               	goto	l3443
  4374                           
  4375                           ;MAIN.c: 329:   m=getch();
  4376  0005FE  EC22  F009         	call	_getch	;wreg free
  4377  000602  0105               	movlb	5	; () banked
  4378  000604  6FA0               	movwf	bios_menu_colour@m& (0+255),b
  4379                           
  4380                           ; BSR set to: 5
  4381                           ;MAIN.c: 330:   if(m=='1') eprom.settings.colour=1;
  4382  000606  0E31               	movlw	49
  4383  000608  19A0               	xorwf	bios_menu_colour@m& (0+255),w,b
  4384  00060A  A4D8               	btfss	status,2,c
  4385  00060C  D002               	goto	l3451
  4386                           
  4387                           ; BSR set to: 5
  4388  00060E  0E01               	movlw	1
  4389  000610  6E3E               	movwf	(_eprom+4)^(0+1280),c
  4390  000612                     l3451:
  4391                           
  4392                           ; BSR set to: 5
  4393                           ;MAIN.c: 331:   if(m=='2') eprom.settings.colour=2;
  4394  000612  0E32               	movlw	50
  4395  000614  19A0               	xorwf	bios_menu_colour@m& (0+255),w,b
  4396  000616  A4D8               	btfss	status,2,c
  4397  000618  D002               	goto	l3455
  4398                           
  4399                           ; BSR set to: 5
  4400  00061A  0E02               	movlw	2
  4401  00061C  6E3E               	movwf	(_eprom+4)^(0+1280),c
  4402  00061E                     l3455:
  4403                           
  4404                           ; BSR set to: 5
  4405                           ;MAIN.c: 332:   if(m=='3') eprom.settings.colour=3;
  4406  00061E  0E33               	movlw	51
  4407  000620  19A0               	xorwf	bios_menu_colour@m& (0+255),w,b
  4408  000622  A4D8               	btfss	status,2,c
  4409  000624  D002               	goto	l3459
  4410                           
  4411                           ; BSR set to: 5
  4412  000626  0E03               	movlw	3
  4413  000628  6E3E               	movwf	(_eprom+4)^(0+1280),c
  4414  00062A                     l3459:
  4415                           
  4416                           ; BSR set to: 5
  4417                           ;MAIN.c: 333:   if(m=='4') eprom.settings.colour=4;
  4418  00062A  0E34               	movlw	52
  4419  00062C  19A0               	xorwf	bios_menu_colour@m& (0+255),w,b
  4420  00062E  A4D8               	btfss	status,2,c
  4421  000630  D002               	goto	l3463
  4422                           
  4423                           ; BSR set to: 5
  4424  000632  0E04               	movlw	4
  4425  000634  6E3E               	movwf	(_eprom+4)^(0+1280),c
  4426  000636                     l3463:
  4427                           
  4428                           ; BSR set to: 5
  4429                           ;MAIN.c: 334:   if(m=='5') eprom.settings.colour=5;
  4430  000636  0E35               	movlw	53
  4431  000638  19A0               	xorwf	bios_menu_colour@m& (0+255),w,b
  4432  00063A  A4D8               	btfss	status,2,c
  4433  00063C  D002               	goto	l3467
  4434                           
  4435                           ; BSR set to: 5
  4436  00063E  0E05               	movlw	5
  4437  000640  6E3E               	movwf	(_eprom+4)^(0+1280),c
  4438  000642                     l3467:
  4439                           
  4440                           ; BSR set to: 5
  4441                           ;MAIN.c: 335:   if(m=='6') eprom.settings.colour=6;
  4442  000642  0E36               	movlw	54
  4443  000644  19A0               	xorwf	bios_menu_colour@m& (0+255),w,b
  4444  000646  A4D8               	btfss	status,2,c
  4445  000648  D002               	goto	l3471
  4446                           
  4447                           ; BSR set to: 5
  4448  00064A  0E06               	movlw	6
  4449  00064C  6E3E               	movwf	(_eprom+4)^(0+1280),c
  4450  00064E                     l3471:
  4451                           
  4452                           ; BSR set to: 5
  4453                           ;MAIN.c: 336:   if(m=='7') eprom.settings.colour=7;
  4454  00064E  0E37               	movlw	55
  4455  000650  19A0               	xorwf	bios_menu_colour@m& (0+255),w,b
  4456  000652  A4D8               	btfss	status,2,c
  4457  000654  D002               	goto	l3475
  4458                           
  4459                           ; BSR set to: 5
  4460  000656  0E07               	movlw	7
  4461  000658  6E3E               	movwf	(_eprom+4)^(0+1280),c
  4462  00065A                     l3475:
  4463                           
  4464                           ; BSR set to: 5
  4465                           ;MAIN.c: 307:  while(m!='\e')
  4466  00065A  0E1B               	movlw	27
  4467  00065C  19A0               	xorwf	bios_menu_colour@m& (0+255),w,b
  4468  00065E  A4D8               	btfss	status,2,c
  4469  000660  D777               	goto	l3441
  4470                           
  4471                           ; BSR set to: 5
  4472                           ;MAIN.c: 338:  save_settings();
  4473  000662  EC10  F008         	call	_save_settings	;wreg free
  4474  000666  0012               	return		;funcret
  4475  000668                     __end_of_bios_menu_colour:
  4476                           	callstack 0
  4477                           
  4478 ;; *************** function _menu_print_colour *****************
  4479 ;; Defined at:
  4480 ;;		line 345 in file "MAIN.c"
  4481 ;; Parameters:    Size  Location     Type
  4482 ;;		None
  4483 ;; Auto vars:     Size  Location     Type
  4484 ;;		None
  4485 ;; Return value:  Size  Location     Type
  4486 ;;                  1    wreg      void 
  4487 ;; Registers used:
  4488 ;;		wreg, fsr1l, fsr1h, fsr2l, fsr2h, status,2, status,0, tblptrl, tblptrh, tblptru, cstack
  4489 ;; Tracked objects:
  4490 ;;		On entry : 3F/5
  4491 ;;		On exit  : 3F/5
  4492 ;;		Unchanged: 0/0
  4493 ;; Data sizes:     COMRAM   BANK5   BANK6   BANK7   BANK8
  4494 ;;      Params:         0       0       0       0       0
  4495 ;;      Locals:         0       0       0       0       0
  4496 ;;      Temps:          0       2       0       0       0
  4497 ;;      Totals:         0       2       0       0       0
  4498 ;;Total ram usage:        2 bytes
  4499 ;; Hardware stack levels used: 1
  4500 ;; Hardware stack levels required when called: 12
  4501 ;; This function calls:
  4502 ;;		_printf
  4503 ;; This function is called by:
  4504 ;;		_bios_menu_colour
  4505 ;; This function uses a non-reentrant model
  4506 ;;
  4507                           
  4508                           	psect	text21
  4509  000A12                     __ptext21:
  4510                           	callstack 0
  4511  000A12                     _menu_print_colour:
  4512                           	callstack 111
  4513                           
  4514                           ; BSR set to: 5
  4515                           ;MAIN.c: 347:  switch(eprom.settings.colour)
  4516                           
  4517                           ;incstack = 0
  4518  000A12  D031               	goto	l3381
  4519  000A14                     l3365:
  4520                           
  4521                           ; BSR set to: 5
  4522                           ;MAIN.c: 351:    printf("RED\r");
  4523  000A14  0EE4               	movlw	low (STR_44+6)
  4524  000A16  6F96               	movwf	printf@fmt& (0+255),b
  4525  000A18  0E3F               	movlw	high (STR_44+6)
  4526  000A1A  6F97               	movwf	(printf@fmt+1)& (0+255),b
  4527  000A1C  ECDB  F009         	call	_printf	;wreg free
  4528                           
  4529                           ;MAIN.c: 352:    break;
  4530  000A20  0012               	return	
  4531  000A22                     l3367:
  4532                           
  4533                           ; BSR set to: 5
  4534                           ;MAIN.c: 354:    printf("GREEN\r");
  4535  000A22  0E8F               	movlw	low (STR_45+6)
  4536  000A24  6F96               	movwf	printf@fmt& (0+255),b
  4537  000A26  0E3F               	movlw	high (STR_45+6)
  4538  000A28  6F97               	movwf	(printf@fmt+1)& (0+255),b
  4539  000A2A  ECDB  F009         	call	_printf	;wreg free
  4540                           
  4541                           ;MAIN.c: 355:    break;
  4542  000A2E  0012               	return	
  4543  000A30                     l3369:
  4544                           
  4545                           ; BSR set to: 5
  4546                           ;MAIN.c: 357:    printf("YELLOW\r");
  4547  000A30  0E5A               	movlw	low (STR_46+6)
  4548  000A32  6F96               	movwf	printf@fmt& (0+255),b
  4549  000A34  0E3F               	movlw	high (STR_46+6)
  4550  000A36  6F97               	movwf	(printf@fmt+1)& (0+255),b
  4551  000A38  ECDB  F009         	call	_printf	;wreg free
  4552                           
  4553                           ;MAIN.c: 358:    break;
  4554  000A3C  0012               	return	
  4555  000A3E                     l3371:
  4556                           
  4557                           ; BSR set to: 5
  4558                           ;MAIN.c: 360:    printf("BLUE\r");
  4559  000A3E  0EA8               	movlw	low (STR_47+6)
  4560  000A40  6F96               	movwf	printf@fmt& (0+255),b
  4561  000A42  0E3F               	movlw	high (STR_47+6)
  4562  000A44  6F97               	movwf	(printf@fmt+1)& (0+255),b
  4563  000A46  ECDB  F009         	call	_printf	;wreg free
  4564                           
  4565                           ;MAIN.c: 361:    break;
  4566  000A4A  0012               	return	
  4567  000A4C                     l3373:
  4568                           
  4569                           ; BSR set to: 5
  4570                           ;MAIN.c: 363:    printf("MAGENTA\r");
  4571  000A4C  0E3D               	movlw	low (STR_48+6)
  4572  000A4E  6F96               	movwf	printf@fmt& (0+255),b
  4573  000A50  0E3F               	movlw	high (STR_48+6)
  4574  000A52  6F97               	movwf	(printf@fmt+1)& (0+255),b
  4575  000A54  ECDB  F009         	call	_printf	;wreg free
  4576                           
  4577                           ;MAIN.c: 364:    break;
  4578  000A58  0012               	return	
  4579  000A5A                     l3375:
  4580                           
  4581                           ; BSR set to: 5
  4582                           ;MAIN.c: 366:    printf("CYAN\r");
  4583  000A5A  0EB4               	movlw	low (STR_49+6)
  4584  000A5C  6F96               	movwf	printf@fmt& (0+255),b
  4585  000A5E  0E3F               	movlw	high (STR_49+6)
  4586  000A60  6F97               	movwf	(printf@fmt+1)& (0+255),b
  4587  000A62  ECDB  F009         	call	_printf	;wreg free
  4588                           
  4589                           ;MAIN.c: 367:    break;
  4590  000A66  0012               	return	
  4591  000A68                     l3377:
  4592                           
  4593                           ; BSR set to: 5
  4594                           ;MAIN.c: 369:    printf("WHITE\r");
  4595  000A68  0E82               	movlw	low (STR_50+6)
  4596  000A6A  6F96               	movwf	printf@fmt& (0+255),b
  4597  000A6C  0E3F               	movlw	high (STR_50+6)
  4598  000A6E  6F97               	movwf	(printf@fmt+1)& (0+255),b
  4599  000A70  ECDB  F009         	call	_printf	;wreg free
  4600                           
  4601                           ;MAIN.c: 370:    break;
  4602  000A74  0012               	return	
  4603  000A76                     l3381:
  4604                           
  4605                           ; BSR set to: 5
  4606  000A76  503E               	movf	(_eprom+4)^(0+1280),w,c
  4607  000A78  6F9E               	movwf	??_menu_print_colour& (0+255),b
  4608  000A7A  6B9F               	clrf	(??_menu_print_colour+1)& (0+255),b
  4609                           
  4610                           ; Switch on 2 bytes has been partitioned into a top level switch of size 1, and 1 sub-sw
      +                          itches
  4611                           ; Switch size 1, requested type "simple"
  4612                           ; Number of cases is 1, Range of values is 0 to 0
  4613                           ; switch strategies available:
  4614                           ; Name         Instructions Cycles
  4615                           ; simple_byte            4     3 (average)
  4616                           ;	Chosen strategy is simple_byte
  4617  000A7C  519F               	movf	(??_menu_print_colour+1)& (0+255),w,b
  4618  000A7E  0A00               	xorlw	0	; case 0
  4619  000A80  A4D8               	btfss	status,2,c
  4620  000A82  D7C8               	goto	l3365
  4621                           
  4622                           ; BSR set to: 5
  4623                           ; Switch size 1, requested type "simple"
  4624                           ; Number of cases is 7, Range of values is 1 to 7
  4625                           ; switch strategies available:
  4626                           ; Name         Instructions Cycles
  4627                           ; simple_byte           22    12 (average)
  4628                           ;	Chosen strategy is simple_byte
  4629  000A84  519E               	movf	??_menu_print_colour& (0+255),w,b
  4630  000A86  0A01               	xorlw	1	; case 1
  4631  000A88  B4D8               	btfsc	status,2,c
  4632  000A8A  D7C4               	goto	l3365
  4633  000A8C  0A03               	xorlw	3	; case 2
  4634  000A8E  B4D8               	btfsc	status,2,c
  4635  000A90  D7C8               	goto	l3367
  4636  000A92  0A01               	xorlw	1	; case 3
  4637  000A94  B4D8               	btfsc	status,2,c
  4638  000A96  D7CC               	goto	l3369
  4639  000A98  0A07               	xorlw	7	; case 4
  4640  000A9A  B4D8               	btfsc	status,2,c
  4641  000A9C  D7D0               	goto	l3371
  4642  000A9E  0A01               	xorlw	1	; case 5
  4643  000AA0  B4D8               	btfsc	status,2,c
  4644  000AA2  D7D4               	goto	l3373
  4645  000AA4  0A03               	xorlw	3	; case 6
  4646  000AA6  B4D8               	btfsc	status,2,c
  4647  000AA8  D7D8               	goto	l3375
  4648  000AAA  0A01               	xorlw	1	; case 7
  4649  000AAC  B4D8               	btfsc	status,2,c
  4650  000AAE  D7DC               	goto	l3377
  4651  000AB0  D7B1               	goto	l3365
  4652  000AB2                     __end_of_menu_print_colour:
  4653                           	callstack 0
  4654                           
  4655 ;; *************** function _bios_menu_baud *****************
  4656 ;; Defined at:
  4657 ;;		line 278 in file "MAIN.c"
  4658 ;; Parameters:    Size  Location     Type
  4659 ;;		None
  4660 ;; Auto vars:     Size  Location     Type
  4661 ;;  m               1   62[BANK5 ] unsigned char 
  4662 ;; Return value:  Size  Location     Type
  4663 ;;                  1    wreg      void 
  4664 ;; Registers used:
  4665 ;;		wreg, fsr1l, fsr1h, fsr2l, fsr2h, status,2, status,0, tblptrl, tblptrh, tblptru, cstack
  4666 ;; Tracked objects:
  4667 ;;		On entry : 3F/5
  4668 ;;		On exit  : 38/0
  4669 ;;		Unchanged: 0/0
  4670 ;; Data sizes:     COMRAM   BANK5   BANK6   BANK7   BANK8
  4671 ;;      Params:         0       0       0       0       0
  4672 ;;      Locals:         0       1       0       0       0
  4673 ;;      Temps:          0       0       0       0       0
  4674 ;;      Totals:         0       1       0       0       0
  4675 ;;Total ram usage:        1 bytes
  4676 ;; Hardware stack levels used: 1
  4677 ;; Hardware stack levels required when called: 14
  4678 ;; This function calls:
  4679 ;;		_clear_screen
  4680 ;;		_getch
  4681 ;;		_kbhit
  4682 ;;		_printf
  4683 ;;		_save_settings
  4684 ;; This function is called by:
  4685 ;;		_bios_menu_top
  4686 ;; This function uses a non-reentrant model
  4687 ;;
  4688                           
  4689                           	psect	text22
  4690  0007FE                     __ptext22:
  4691                           	callstack 0
  4692  0007FE                     _bios_menu_baud:
  4693                           	callstack 110
  4694                           
  4695                           ; BSR set to: 5
  4696                           ;MAIN.c: 280:  uint8_t m=0;
  4697                           
  4698                           ; BSR set to: 5
  4699                           ;incstack = 0
  4700  0007FE  0E00               	movlw	0
  4701  000800  6F9E               	movwf	bios_menu_baud@m& (0+255),b
  4702                           
  4703                           ;MAIN.c: 281:  while(m!='\e')
  4704  000802  D053               	goto	l3435
  4705  000804                     l3413:
  4706                           
  4707                           ; BSR set to: 5
  4708                           ;MAIN.c: 282:  {;MAIN.c: 283:   clear_screen();
  4709  000804  EC22  F00A         	call	_clear_screen	;wreg free
  4710                           
  4711                           ;MAIN.c: 284:   printf("\r\tBAUD RATE : %u00\r",eprom.settings.baud );
  4712  000808  0ECC               	movlw	low STR_37
  4713  00080A  6F96               	movwf	printf@fmt& (0+255),b
  4714  00080C  0E3E               	movlw	high STR_37
  4715  00080E  6F97               	movwf	(printf@fmt+1)& (0+255),b
  4716  000810  C53C  F598         	movff	_eprom+2,?_printf+2
  4717  000814  C53D  F599         	movff	_eprom+3,?_printf+3
  4718  000818  ECDB  F009         	call	_printf	;wreg free
  4719                           
  4720                           ;MAIN.c: 285:   printf ("\r\t1 - 9600\r");
  4721  00081C  0E96               	movlw	low STR_38
  4722  00081E  6F96               	movwf	printf@fmt& (0+255),b
  4723  000820  0E3F               	movlw	high STR_38
  4724  000822  6F97               	movwf	(printf@fmt+1)& (0+255),b
  4725  000824  ECDB  F009         	call	_printf	;wreg free
  4726                           
  4727                           ;MAIN.c: 286:   printf ("\r\t2 - 19200\r");
  4728  000828  0E62               	movlw	low STR_39
  4729  00082A  6F96               	movwf	printf@fmt& (0+255),b
  4730  00082C  0E3F               	movlw	high STR_39
  4731  00082E  6F97               	movwf	(printf@fmt+1)& (0+255),b
  4732  000830  ECDB  F009         	call	_printf	;wreg free
  4733                           
  4734                           ;MAIN.c: 287:   printf ("\r\t3 - 57600\r");
  4735  000834  0E6F               	movlw	low STR_40
  4736  000836  6F96               	movwf	printf@fmt& (0+255),b
  4737  000838  0E3F               	movlw	high STR_40
  4738  00083A  6F97               	movwf	(printf@fmt+1)& (0+255),b
  4739  00083C  ECDB  F009         	call	_printf	;wreg free
  4740                           
  4741                           ;MAIN.c: 288:   printf ("\r\t4 - 115200\r");
  4742  000840  0E46               	movlw	low STR_41
  4743  000842  6F96               	movwf	printf@fmt& (0+255),b
  4744  000844  0E3F               	movlw	high STR_41
  4745  000846  6F97               	movwf	(printf@fmt+1)& (0+255),b
  4746  000848  ECDB  F009         	call	_printf	;wreg free
  4747                           
  4748                           ;MAIN.c: 289:   printf ("\r\t[ESC] - EXIT\r");
  4749  00084C  0E17               	movlw	low STR_31
  4750  00084E  6F96               	movwf	printf@fmt& (0+255),b
  4751  000850  0E3F               	movlw	high STR_31
  4752  000852  6F97               	movwf	(printf@fmt+1)& (0+255),b
  4753  000854  ECDB  F009         	call	_printf	;wreg free
  4754  000858                     l3415:
  4755  000858  EC4A  F00A         	call	_kbhit	;wreg free
  4756  00085C  0900               	iorlw	0
  4757  00085E  B4D8               	btfsc	status,2,c
  4758  000860  D7FB               	goto	l3415
  4759                           
  4760                           ;MAIN.c: 291:   m=getch();
  4761  000862  EC22  F009         	call	_getch	;wreg free
  4762  000866  0105               	movlb	5	; () banked
  4763  000868  6F9E               	movwf	bios_menu_baud@m& (0+255),b
  4764                           
  4765                           ; BSR set to: 5
  4766                           ;MAIN.c: 292:   if(m=='1') eprom.settings.baud=96;
  4767  00086A  0E31               	movlw	49
  4768  00086C  199E               	xorwf	bios_menu_baud@m& (0+255),w,b
  4769  00086E  A4D8               	btfss	status,2,c
  4770  000870  D004               	goto	l3423
  4771                           
  4772                           ; BSR set to: 5
  4773  000872  0E00               	movlw	0
  4774  000874  6E3D               	movwf	(_eprom+3)^(0+1280),c
  4775  000876  0E60               	movlw	96
  4776  000878  6E3C               	movwf	(_eprom+2)^(0+1280),c
  4777  00087A                     l3423:
  4778                           
  4779                           ; BSR set to: 5
  4780                           ;MAIN.c: 293:   if(m=='2') eprom.settings.baud=192;
  4781  00087A  0E32               	movlw	50
  4782  00087C  199E               	xorwf	bios_menu_baud@m& (0+255),w,b
  4783  00087E  A4D8               	btfss	status,2,c
  4784  000880  D004               	goto	l3427
  4785                           
  4786                           ; BSR set to: 5
  4787  000882  0E00               	movlw	0
  4788  000884  6E3D               	movwf	(_eprom+3)^(0+1280),c
  4789  000886  0EC0               	movlw	192
  4790  000888  6E3C               	movwf	(_eprom+2)^(0+1280),c
  4791  00088A                     l3427:
  4792                           
  4793                           ; BSR set to: 5
  4794                           ;MAIN.c: 294:   if(m=='3') eprom.settings.baud=576;
  4795  00088A  0E33               	movlw	51
  4796  00088C  199E               	xorwf	bios_menu_baud@m& (0+255),w,b
  4797  00088E  A4D8               	btfss	status,2,c
  4798  000890  D004               	goto	l3431
  4799                           
  4800                           ; BSR set to: 5
  4801  000892  0E02               	movlw	2
  4802  000894  6E3D               	movwf	(_eprom+3)^(0+1280),c
  4803  000896  0E40               	movlw	64
  4804  000898  6E3C               	movwf	(_eprom+2)^(0+1280),c
  4805  00089A                     l3431:
  4806                           
  4807                           ; BSR set to: 5
  4808                           ;MAIN.c: 295:   if(m=='4') eprom.settings.baud=1152;
  4809  00089A  0E34               	movlw	52
  4810  00089C  199E               	xorwf	bios_menu_baud@m& (0+255),w,b
  4811  00089E  A4D8               	btfss	status,2,c
  4812  0008A0  D004               	goto	l3435
  4813                           
  4814                           ; BSR set to: 5
  4815  0008A2  0E04               	movlw	4
  4816  0008A4  6E3D               	movwf	(_eprom+3)^(0+1280),c
  4817  0008A6  0E80               	movlw	128
  4818  0008A8  6E3C               	movwf	(_eprom+2)^(0+1280),c
  4819  0008AA                     l3435:
  4820                           
  4821                           ; BSR set to: 5
  4822                           ;MAIN.c: 281:  while(m!='\e')
  4823  0008AA  0E1B               	movlw	27
  4824  0008AC  199E               	xorwf	bios_menu_baud@m& (0+255),w,b
  4825  0008AE  A4D8               	btfss	status,2,c
  4826  0008B0  D7A9               	goto	l3413
  4827                           
  4828                           ; BSR set to: 5
  4829                           ;MAIN.c: 297:  save_settings();
  4830  0008B2  EC10  F008         	call	_save_settings	;wreg free
  4831  0008B6  0012               	return		;funcret
  4832  0008B8                     __end_of_bios_menu_baud:
  4833                           	callstack 0
  4834                           
  4835 ;; *************** function _save_settings *****************
  4836 ;; Defined at:
  4837 ;;		line 399 in file "MAIN.c"
  4838 ;; Parameters:    Size  Location     Type
  4839 ;;		None
  4840 ;; Auto vars:     Size  Location     Type
  4841 ;;  adr             1   33[COMRAM] unsigned char 
  4842 ;; Return value:  Size  Location     Type
  4843 ;;                  1    wreg      void 
  4844 ;; Registers used:
  4845 ;;		wreg, fsr2l, fsr2h, status,2, status,0, cstack
  4846 ;; Tracked objects:
  4847 ;;		On entry : 38/3
  4848 ;;		On exit  : 38/0
  4849 ;;		Unchanged: 0/0
  4850 ;; Data sizes:     COMRAM   BANK5   BANK6   BANK7   BANK8
  4851 ;;      Params:         0       0       0       0       0
  4852 ;;      Locals:         1       0       0       0       0
  4853 ;;      Temps:          2       0       0       0       0
  4854 ;;      Totals:         3       0       0       0       0
  4855 ;;Total ram usage:        3 bytes
  4856 ;; Hardware stack levels used: 1
  4857 ;; Hardware stack levels required when called: 5
  4858 ;; This function calls:
  4859 ;;		_dfm_read
  4860 ;;		_dfm_write
  4861 ;; This function is called by:
  4862 ;;		_bios_menu_speed
  4863 ;;		_bios_menu_baud
  4864 ;;		_bios_menu_colour
  4865 ;;		_load_settings
  4866 ;; This function uses a non-reentrant model
  4867 ;;
  4868                           
  4869                           	psect	text23
  4870  001020                     __ptext23:
  4871                           	callstack 0
  4872  001020                     _save_settings:
  4873                           	callstack 120
  4874                           
  4875                           ;MAIN.c: 401:  uint8_t adr=sizeof(_eprom);
  4876                           
  4877                           ;incstack = 0
  4878  001020  0E05               	movlw	5
  4879  001022  6E22               	movwf	save_settings@adr^(0+1280),c
  4880                           
  4881                           ;MAIN.c: 402:  while(adr--)
  4882  001024  D01D               	goto	l2685
  4883  001026                     l2681:
  4884                           
  4885                           ;MAIN.c: 403:  {;MAIN.c: 404:   if(dfm_read(adr)!=eprom.arr[adr])
  4886  001026  0E3A               	movlw	low _eprom
  4887  001028  2422               	addwf	save_settings@adr^(0+1280),w,c
  4888  00102A  6ED9               	movwf	fsr2l,c
  4889  00102C  6ADA               	clrf	fsr2h,c
  4890  00102E  0E05               	movlw	high _eprom
  4891  001030  22DA               	addwfc	fsr2h,f,c
  4892  001032  C522  F519         	movff	save_settings@adr,dfm_read@adr
  4893  001036  6A1A               	clrf	(dfm_read@adr+1)^(0+1280),c
  4894  001038  ECB0  F009         	call	_dfm_read	;wreg free
  4895  00103C  6E21               	movwf	(??_save_settings+1)^(0+1280),c
  4896  00103E  50DE               	movf	postinc2,w,c
  4897  001040  1821               	xorwf	(??_save_settings+1)^(0+1280),w,c
  4898  001042  B4D8               	btfsc	status,2,c
  4899  001044  D00D               	goto	l2685
  4900                           
  4901                           ; BSR set to: 0
  4902                           ;MAIN.c: 405:   {;MAIN.c: 406:    dfm_write(adr,eprom.arr[adr]);
  4903  001046  C522  F519         	movff	save_settings@adr,dfm_write@adr
  4904  00104A  6A1A               	clrf	(dfm_write@adr+1)^(0+1280),c
  4905  00104C  0E3A               	movlw	low _eprom
  4906  00104E  2422               	addwf	save_settings@adr^(0+1280),w,c
  4907  001050  6ED9               	movwf	fsr2l,c
  4908  001052  6ADA               	clrf	fsr2h,c
  4909  001054  0E05               	movlw	high _eprom
  4910  001056  22DA               	addwfc	fsr2h,f,c
  4911  001058  50DF               	movf	indf2,w,c
  4912  00105A  6E1B               	movwf	dfm_write@dat^(0+1280),c
  4913  00105C  ECE5  F007         	call	_dfm_write	;wreg free
  4914  001060                     l2685:
  4915                           
  4916                           ;MAIN.c: 402:  while(adr--)
  4917  001060  0622               	decf	save_settings@adr^(0+1280),f,c
  4918  001062  2822               	incf	save_settings@adr^(0+1280),w,c
  4919  001064  B4D8               	btfsc	status,2,c
  4920  001066  0012               	return	
  4921  001068  D7DE               	goto	l2681
  4922  00106A                     __end_of_save_settings:
  4923                           	callstack 0
  4924                           
  4925 ;; *************** function _dfm_write *****************
  4926 ;; Defined at:
  4927 ;;		line 428 in file "MAIN.c"
  4928 ;; Parameters:    Size  Location     Type
  4929 ;;  adr             2   24[COMRAM] unsigned short 
  4930 ;;  dat             1   26[COMRAM] unsigned char 
  4931 ;; Auto vars:     Size  Location     Type
  4932 ;;  GIEBitValue     1   30[COMRAM] unsigned char 
  4933 ;; Return value:  Size  Location     Type
  4934 ;;                  1    wreg      void 
  4935 ;; Registers used:
  4936 ;;		wreg, status,2, status,0
  4937 ;; Tracked objects:
  4938 ;;		On entry : 3F/0
  4939 ;;		On exit  : 3F/0
  4940 ;;		Unchanged: 0/0
  4941 ;; Data sizes:     COMRAM   BANK5   BANK6   BANK7   BANK8
  4942 ;;      Params:         3       0       0       0       0
  4943 ;;      Locals:         1       0       0       0       0
  4944 ;;      Temps:          3       0       0       0       0
  4945 ;;      Totals:         7       0       0       0       0
  4946 ;;Total ram usage:        7 bytes
  4947 ;; Hardware stack levels used: 1
  4948 ;; Hardware stack levels required when called: 4
  4949 ;; This function calls:
  4950 ;;		Nothing
  4951 ;; This function is called by:
  4952 ;;		_save_settings
  4953 ;; This function uses a non-reentrant model
  4954 ;;
  4955                           
  4956                           	psect	text24
  4957  000FCA                     __ptext24:
  4958                           	callstack 0
  4959  000FCA                     _dfm_write:
  4960                           	callstack 120
  4961                           
  4962                           ; BSR set to: 0
  4963                           ;MAIN.c: 428: void dfm_write(uint16_t adr,uint8_t dat);MAIN.c: 429: {;MAIN.c: 430:  uint
      +                          8_t GIEBitValue = INTCON0bits.GIE;
  4964                           
  4965                           ;incstack = 0
  4966  000FCA  0E00               	movlw	0
  4967  000FCC  BED6               	btfsc	214,7,c	;volatile
  4968  000FCE  0E01               	movlw	1
  4969  000FD0  6E1F               	movwf	dfm_write@GIEBitValue^(0+1280),c
  4970                           
  4971                           ; BSR set to: 0
  4972                           ;MAIN.c: 431:  NVMADR=0x380000 + adr;
  4973  000FD2  C519  F51C         	movff	dfm_write@adr,??_dfm_write
  4974  000FD6  C51A  F51D         	movff	dfm_write@adr+1,??_dfm_write+1
  4975  000FDA  6A1E               	clrf	(??_dfm_write+2)^(0+1280),c
  4976  000FDC  0E00               	movlw	0
  4977  000FDE  241C               	addwf	??_dfm_write^(0+1280),w,c
  4978  000FE0  6F43               	movwf	67,b	;volatile
  4979  000FE2  0E00               	movlw	0
  4980  000FE4  201D               	addwfc	(??_dfm_write+1)^(0+1280),w,c
  4981  000FE6  6F44               	movwf	68,b	;volatile
  4982  000FE8  0E38               	movlw	56
  4983  000FEA  201E               	addwfc	(??_dfm_write+2)^(0+1280),w,c
  4984  000FEC  6F45               	movwf	69,b	;volatile
  4985                           
  4986                           ; BSR set to: 0
  4987                           ;MAIN.c: 432:  NVMDATL = dat;
  4988  000FEE  0061  F46C  F046   	movff	dfm_write@dat,70	;volatile
  4989                           
  4990                           ; BSR set to: 0
  4991                           ;MAIN.c: 433:  NVMCON1bits.CMD = 0x03;
  4992  000FF4  5141               	movf	65,w,b	;volsfr
  4993  000FF6  0BF8               	andlw	-8
  4994  000FF8  0903               	iorlw	3
  4995  000FFA  6F41               	movwf	65,b	;volsfr
  4996                           
  4997                           ; BSR set to: 0
  4998                           ;MAIN.c: 434:  INTCON0bits.GIE = 0;
  4999  000FFC  9ED6               	bcf	214,7,c	;volatile
  5000                           
  5001                           ; BSR set to: 0
  5002                           ;MAIN.c: 435:  NVMLOCK = 0x55;
  5003  000FFE  0E55               	movlw	85
  5004  001000  6F42               	movwf	66,b	;volatile
  5005                           
  5006                           ; BSR set to: 0
  5007                           ;MAIN.c: 436:  NVMLOCK = 0xAA;
  5008  001002  0EAA               	movlw	170
  5009  001004  6F42               	movwf	66,b	;volatile
  5010                           
  5011                           ; BSR set to: 0
  5012                           ;MAIN.c: 437:  NVMCON0bits.GO = 1;
  5013  001006  8140               	bsf	64,0,b	;volatile
  5014  001008                     l201:
  5015                           
  5016                           ; BSR set to: 0
  5017  001008  B140               	btfsc	64,0,b	;volatile
  5018  00100A  D7FE               	goto	l201
  5019                           
  5020                           ; BSR set to: 0
  5021                           ;MAIN.c: 439:  if (NVMCON1bits.WRERR)
  5022  00100C  5141               	movf	65,w,b	;volsfr
  5023                           
  5024                           ; BSR set to: 0
  5025                           ;MAIN.c: 443:  INTCON0bits.GIE = GIEBitValue;
  5026                           
  5027                           ;MAIN.c: 440:  {;MAIN.c: 442:  }
  5028  00100E  B01F               	btfsc	dfm_write@GIEBitValue^(0+1280),0,c
  5029  001010  D002               	bra	u1225
  5030  001012  9ED6               	bcf	214,7,c	;volatile
  5031  001014  D001               	bra	u1226
  5032  001016                     u1225:
  5033  001016  8ED6               	bsf	214,7,c	;volatile
  5034  001018                     u1226:
  5035                           
  5036                           ;MAIN.c: 444:  NVMCON1bits.CMD = 0;
  5037  001018  0EF8               	movlw	-8
  5038  00101A  0100               	movlb	0	; () banked
  5039  00101C  1741               	andwf	65,f,b	;volsfr
  5040                           
  5041                           ; BSR set to: 0
  5042  00101E  0012               	return		;funcret
  5043  001020                     __end_of_dfm_write:
  5044                           	callstack 0
  5045                           
  5046 ;; *************** function _dfm_read *****************
  5047 ;; Defined at:
  5048 ;;		line 415 in file "MAIN.c"
  5049 ;; Parameters:    Size  Location     Type
  5050 ;;  adr             2   24[COMRAM] unsigned short 
  5051 ;; Auto vars:     Size  Location     Type
  5052 ;;		None
  5053 ;; Return value:  Size  Location     Type
  5054 ;;                  1    wreg      unsigned char 
  5055 ;; Registers used:
  5056 ;;		wreg, status,2, status,0
  5057 ;; Tracked objects:
  5058 ;;		On entry : 38/3
  5059 ;;		On exit  : 3F/0
  5060 ;;		Unchanged: 0/0
  5061 ;; Data sizes:     COMRAM   BANK5   BANK6   BANK7   BANK8
  5062 ;;      Params:         2       0       0       0       0
  5063 ;;      Locals:         0       0       0       0       0
  5064 ;;      Temps:          3       0       0       0       0
  5065 ;;      Totals:         5       0       0       0       0
  5066 ;;Total ram usage:        5 bytes
  5067 ;; Hardware stack levels used: 1
  5068 ;; Hardware stack levels required when called: 4
  5069 ;; This function calls:
  5070 ;;		Nothing
  5071 ;; This function is called by:
  5072 ;;		_load_settings
  5073 ;;		_save_settings
  5074 ;; This function uses a non-reentrant model
  5075 ;;
  5076                           
  5077                           	psect	text25
  5078  001360                     __ptext25:
  5079                           	callstack 0
  5080  001360                     _dfm_read:
  5081                           	callstack 120
  5082                           
  5083                           ;MAIN.c: 415: uint8_t dfm_read(uint16_t adr);MAIN.c: 416: {;MAIN.c: 417:  NVMADR=0x38000
      +                          0 + adr;
  5084                           
  5085                           ; BSR set to: 0
  5086                           ;incstack = 0
  5087  001360  C519  F51B         	movff	dfm_read@adr,??_dfm_read
  5088  001364  C51A  F51C         	movff	dfm_read@adr+1,??_dfm_read+1
  5089  001368  6A1D               	clrf	(??_dfm_read+2)^(0+1280),c
  5090  00136A  0E00               	movlw	0
  5091  00136C  241B               	addwf	??_dfm_read^(0+1280),w,c
  5092  00136E  0100               	movlb	0	; () banked
  5093  001370  6F43               	movwf	67,b	;volatile
  5094  001372  0E00               	movlw	0
  5095  001374  201C               	addwfc	(??_dfm_read+1)^(0+1280),w,c
  5096  001376  6F44               	movwf	68,b	;volatile
  5097  001378  0E38               	movlw	56
  5098  00137A  201D               	addwfc	(??_dfm_read+2)^(0+1280),w,c
  5099  00137C  6F45               	movwf	69,b	;volatile
  5100                           
  5101                           ; BSR set to: 0
  5102                           ;MAIN.c: 418:  NVMCON1bits.CMD=0x00;
  5103  00137E  0EF8               	movlw	-8
  5104  001380  1741               	andwf	65,f,b	;volsfr
  5105                           
  5106                           ; BSR set to: 0
  5107                           ;MAIN.c: 419:  NVMCON0bits.GO=1;
  5108  001382  8140               	bsf	64,0,b	;volatile
  5109  001384                     l195:
  5110                           
  5111                           ; BSR set to: 0
  5112  001384  B140               	btfsc	64,0,b	;volatile
  5113  001386  D7FE               	goto	l195
  5114                           
  5115                           ; BSR set to: 0
  5116                           ;MAIN.c: 421:  return(NVMDATL);
  5117  001388  5146               	movf	70,w,b	;volatile
  5118                           
  5119                           ; BSR set to: 0
  5120  00138A  0012               	return		;funcret
  5121  00138C                     __end_of_dfm_read:
  5122                           	callstack 0
  5123                           
  5124 ;; *************** function _kbhit *****************
  5125 ;; Defined at:
  5126 ;;		line 104 in file "uart1.c"
  5127 ;; Parameters:    Size  Location     Type
  5128 ;;		None
  5129 ;; Auto vars:     Size  Location     Type
  5130 ;;		None
  5131 ;; Return value:  Size  Location     Type
  5132 ;;                  1    wreg      unsigned char 
  5133 ;; Registers used:
  5134 ;;		wreg, status,2
  5135 ;; Tracked objects:
  5136 ;;		On entry : 0/5
  5137 ;;		On exit  : 0/0
  5138 ;;		Unchanged: 0/0
  5139 ;; Data sizes:     COMRAM   BANK5   BANK6   BANK7   BANK8
  5140 ;;      Params:         0       0       0       0       0
  5141 ;;      Locals:         0       0       0       0       0
  5142 ;;      Temps:          0       0       0       0       0
  5143 ;;      Totals:         0       0       0       0       0
  5144 ;;Total ram usage:        0 bytes
  5145 ;; Hardware stack levels used: 1
  5146 ;; Hardware stack levels required when called: 4
  5147 ;; This function calls:
  5148 ;;		Nothing
  5149 ;; This function is called by:
  5150 ;;		_bios_menu
  5151 ;;		_bios_menu_top
  5152 ;;		_bios_menu_speed
  5153 ;;		_bios_menu_baud
  5154 ;;		_bios_menu_colour
  5155 ;; This function uses a non-reentrant model
  5156 ;;
  5157                           
  5158                           	psect	text26
  5159  001494                     __ptext26:
  5160                           	callstack 0
  5161  001494                     _kbhit:
  5162                           	callstack 121
  5163                           
  5164                           ;uart1.c: 106:  return( buff_count );
  5165                           
  5166                           ; BSR set to: 0
  5167                           ;incstack = 0
  5168  001494  5045               	movf	_buff_count^(0+1280),w,c
  5169  001496  0012               	return		;funcret
  5170  001498                     __end_of_kbhit:
  5171                           	callstack 0
  5172                           
  5173 ;; *************** function _getch *****************
  5174 ;; Defined at:
  5175 ;;		line 113 in file "uart1.c"
  5176 ;; Parameters:    Size  Location     Type
  5177 ;;		None
  5178 ;; Auto vars:     Size  Location     Type
  5179 ;;		None
  5180 ;; Return value:  Size  Location     Type
  5181 ;;                  1    wreg      unsigned char 
  5182 ;; Registers used:
  5183 ;;		wreg, fsr2l, fsr2h, status,2, status,0, cstack
  5184 ;; Tracked objects:
  5185 ;;		On entry : 0/5
  5186 ;;		On exit  : 0/0
  5187 ;;		Unchanged: 0/0
  5188 ;; Data sizes:     COMRAM   BANK5   BANK6   BANK7   BANK8
  5189 ;;      Params:         0       0       0       0       0
  5190 ;;      Locals:         0       0       0       0       0
  5191 ;;      Temps:          2       0       0       0       0
  5192 ;;      Totals:         2       0       0       0       0
  5193 ;;Total ram usage:        2 bytes
  5194 ;; Hardware stack levels used: 1
  5195 ;; Hardware stack levels required when called: 5
  5196 ;; This function calls:
  5197 ;;		_putch
  5198 ;; This function is called by:
  5199 ;;		_bios_menu
  5200 ;;		_bios_menu_top
  5201 ;;		_bios_menu_speed
  5202 ;;		_bios_menu_baud
  5203 ;;		_bios_menu_colour
  5204 ;; This function uses a non-reentrant model
  5205 ;;
  5206                           
  5207                           	psect	text27
  5208  001244                     __ptext27:
  5209                           	callstack 0
  5210  001244                     _getch:
  5211                           	callstack 120
  5212                           
  5213                           ;uart1.c: 115:  if(!buff_count) return(0);
  5214                           
  5215                           ;incstack = 0
  5216  001244  5045               	movf	_buff_count^(0+1280),w,c
  5217  001246  A4D8               	btfss	status,2,c
  5218  001248  D002               	goto	l2669
  5219  00124A  0E00               	movlw	0
  5220  00124C  0012               	return	
  5221  00124E                     l2669:
  5222                           
  5223                           ;uart1.c: 116:  buff_count--;
  5224  00124E  0645               	decf	_buff_count^(0+1280),f,c
  5225                           
  5226                           ;uart1.c: 117:  if( buff_count == 64 ) putch( 0x11 );
  5227  001250  0E40               	movlw	64
  5228  001252  1845               	xorwf	_buff_count^(0+1280),w,c
  5229  001254  A4D8               	btfss	status,2,c
  5230  001256  D003               	goto	l2675
  5231  001258  0E11               	movlw	17
  5232  00125A  EC36  F00A         	call	_putch
  5233  00125E                     l2675:
  5234                           
  5235                           ;uart1.c: 118:  return( buffer[ buff_out++ ] );
  5236  00125E  2A46               	incf	_buff_out^(0+1280),f,c
  5237  001260  0446               	decf	_buff_out^(0+1280),w,c
  5238  001262  6E1A               	movwf	??_getch^(0+1280),c
  5239  001264  6A1B               	clrf	(??_getch+1)^(0+1280),c
  5240  001266  0E00               	movlw	low _buffer
  5241  001268  241A               	addwf	??_getch^(0+1280),w,c
  5242  00126A  6ED9               	movwf	fsr2l,c
  5243  00126C  0E06               	movlw	high _buffer
  5244  00126E  201B               	addwfc	(??_getch+1)^(0+1280),w,c
  5245  001270  6EDA               	movwf	fsr2h,c
  5246  001272  50DF               	movf	indf2,w,c
  5247  001274  0012               	return		;funcret
  5248  001276                     __end_of_getch:
  5249                           	callstack 0
  5250                           
  5251 ;; *************** function _clear_screen *****************
  5252 ;; Defined at:
  5253 ;;		line 128 in file "MAIN.c"
  5254 ;; Parameters:    Size  Location     Type
  5255 ;;		None
  5256 ;; Auto vars:     Size  Location     Type
  5257 ;;		None
  5258 ;; Return value:  Size  Location     Type
  5259 ;;                  1    wreg      void 
  5260 ;; Registers used:
  5261 ;;		wreg, fsr1l, fsr1h, fsr2l, fsr2h, status,2, status,0, tblptrl, tblptrh, tblptru, cstack
  5262 ;; Tracked objects:
  5263 ;;		On entry : 0/2
  5264 ;;		On exit  : 3F/5
  5265 ;;		Unchanged: 0/0
  5266 ;; Data sizes:     COMRAM   BANK5   BANK6   BANK7   BANK8
  5267 ;;      Params:         0       0       0       0       0
  5268 ;;      Locals:         0       0       0       0       0
  5269 ;;      Temps:          0       0       0       0       0
  5270 ;;      Totals:         0       0       0       0       0
  5271 ;;Total ram usage:        0 bytes
  5272 ;; Hardware stack levels used: 1
  5273 ;; Hardware stack levels required when called: 13
  5274 ;; This function calls:
  5275 ;;		_printf
  5276 ;;		_text_colour
  5277 ;; This function is called by:
  5278 ;;		_print_title
  5279 ;;		_bios_menu_top
  5280 ;;		_bios_menu_speed
  5281 ;;		_bios_menu_baud
  5282 ;;		_bios_menu_colour
  5283 ;; This function uses a non-reentrant model
  5284 ;;
  5285                           
  5286                           	psect	text28
  5287  001444                     __ptext28:
  5288                           	callstack 0
  5289  001444                     _clear_screen:
  5290                           	callstack 112
  5291                           
  5292                           ;MAIN.c: 130:  printf( "\e[0m\e[2J\e[H\e[1m");
  5293                           
  5294                           ;incstack = 0
  5295  001444  0E27               	movlw	low STR_1
  5296  001446  0105               	movlb	5	; () banked
  5297  001448  6F96               	movwf	printf@fmt& (0+255),b
  5298  00144A  0E3F               	movlw	high STR_1
  5299  00144C  6F97               	movwf	(printf@fmt+1)& (0+255),b
  5300  00144E  ECDB  F009         	call	_printf	;wreg free
  5301                           
  5302                           ;MAIN.c: 131:  text_colour(eprom.settings.colour);
  5303  001452  503E               	movf	(_eprom+4)^(0+1280),w,c
  5304  001454  EC0A  F00A         	call	_text_colour
  5305                           
  5306                           ; BSR set to: 5
  5307  001458  0012               	return		;funcret
  5308  00145A                     __end_of_clear_screen:
  5309                           	callstack 0
  5310                           
  5311 ;; *************** function _text_colour *****************
  5312 ;; Defined at:
  5313 ;;		line 138 in file "MAIN.c"
  5314 ;; Parameters:    Size  Location     Type
  5315 ;;  c               1    wreg     unsigned char 
  5316 ;; Auto vars:     Size  Location     Type
  5317 ;;  c               1   56[COMRAM] unsigned char 
  5318 ;; Return value:  Size  Location     Type
  5319 ;;                  1    wreg      void 
  5320 ;; Registers used:
  5321 ;;		wreg, fsr1l, fsr1h, fsr2l, fsr2h, status,2, status,0, tblptrl, tblptrh, tblptru, cstack
  5322 ;; Tracked objects:
  5323 ;;		On entry : 0/5
  5324 ;;		On exit  : 3F/5
  5325 ;;		Unchanged: 0/0
  5326 ;; Data sizes:     COMRAM   BANK5   BANK6   BANK7   BANK8
  5327 ;;      Params:         0       0       0       0       0
  5328 ;;      Locals:         1       0       0       0       0
  5329 ;;      Temps:          0       0       0       0       0
  5330 ;;      Totals:         1       0       0       0       0
  5331 ;;Total ram usage:        1 bytes
  5332 ;; Hardware stack levels used: 1
  5333 ;; Hardware stack levels required when called: 12
  5334 ;; This function calls:
  5335 ;;		_printf
  5336 ;; This function is called by:
  5337 ;;		_main
  5338 ;;		_clear_screen
  5339 ;;		_print_title
  5340 ;;		_bios_menu_colour
  5341 ;; This function uses a non-reentrant model
  5342 ;;
  5343                           
  5344                           	psect	text29
  5345  001414                     __ptext29:
  5346                           	callstack 0
  5347  001414                     _text_colour:
  5348                           	callstack 114
  5349                           
  5350                           ; BSR set to: 5
  5351                           ;incstack = 0
  5352                           ;text_colour@c stored from wreg
  5353  001414  6E39               	movwf	text_colour@c^(0+1280),c
  5354                           
  5355                           ;MAIN.c: 138: void text_colour(uint8_t c);MAIN.c: 139: {;MAIN.c: 140:  printf( "\e[3%um"
      +                          ,c);
  5356  001416  0EE9               	movlw	low STR_2
  5357  001418  0105               	movlb	5	; () banked
  5358  00141A  6F96               	movwf	printf@fmt& (0+255),b
  5359  00141C  0E3F               	movlw	high STR_2
  5360  00141E  6F97               	movwf	(printf@fmt+1)& (0+255),b
  5361  001420  C539  F598         	movff	text_colour@c,?_printf+2
  5362  001424  6B99               	clrf	(?_printf+3)& (0+255),b
  5363  001426  ECDB  F009         	call	_printf	;wreg free
  5364                           
  5365                           ; BSR set to: 5
  5366  00142A  0012               	return		;funcret
  5367  00142C                     __end_of_text_colour:
  5368                           	callstack 0
  5369                           
  5370 ;; *************** function _printf *****************
  5371 ;; Defined at:
  5372 ;;		line 5 in file "/opt/microchip/xc8/v2.36/pic/sources/c99/common/printf.c"
  5373 ;; Parameters:    Size  Location     Type
  5374 ;;  fmt             2   54[BANK5 ] PTR const unsigned char 
  5375 ;;		 -> STR_58(7), STR_57(6), STR_56(9), STR_55(6), 
  5376 ;;		 -> STR_54(8), STR_53(7), STR_52(5), STR_51(16), 
  5377 ;;		 -> STR_50(13), STR_49(12), STR_48(15), STR_47(12), 
  5378 ;;		 -> STR_46(14), STR_45(13), STR_44(11), STR_43(17), 
  5379 ;;		 -> STR_42(16), STR_41(14), STR_40(13), STR_39(13), 
  5380 ;;		 -> STR_38(12), STR_37(20), STR_36(16), STR_35(12), 
  5381 ;;		 -> STR_34(12), STR_33(12), STR_32(28), STR_31(16), 
  5382 ;;		 -> STR_30(19), STR_29(22), STR_28(23), STR_27(3), 
  5383 ;;		 -> STR_26(3), STR_25(3), STR_24(3), STR_23(3), 
  5384 ;;		 -> STR_22(30), STR_21(2), STR_20(24), STR_19(26), 
  5385 ;;		 -> STR_18(27), STR_17(27), STR_16(28), STR_15(28), 
  5386 ;;		 -> STR_14(26), STR_13(25), STR_12(25), STR_11(25), 
  5387 ;;		 -> STR_10(26), STR_9(27), STR_8(27), STR_7(25), 
  5388 ;;		 -> STR_6(19), STR_5(21), STR_4(22), STR_3(22), 
  5389 ;;		 -> STR_2(7), STR_1(16), 
  5390 ;; Auto vars:     Size  Location     Type
  5391 ;;  ap              2   60[BANK5 ] PTR void [1]
  5392 ;;		 -> ?_printf(2), 
  5393 ;;  ret             2    0        int 
  5394 ;; Return value:  Size  Location     Type
  5395 ;;                  2   54[BANK5 ] int 
  5396 ;; Registers used:
  5397 ;;		wreg, fsr1l, fsr1h, fsr2l, fsr2h, status,2, status,0, tblptrl, tblptrh, tblptru, cstack
  5398 ;; Tracked objects:
  5399 ;;		On entry : 3F/5
  5400 ;;		On exit  : 3F/5
  5401 ;;		Unchanged: 0/0
  5402 ;; Data sizes:     COMRAM   BANK5   BANK6   BANK7   BANK8
  5403 ;;      Params:         0       6       0       0       0
  5404 ;;      Locals:         0       2       0       0       0
  5405 ;;      Temps:          0       0       0       0       0
  5406 ;;      Totals:         0       8       0       0       0
  5407 ;;Total ram usage:        8 bytes
  5408 ;; Hardware stack levels used: 1
  5409 ;; Hardware stack levels required when called: 11
  5410 ;; This function calls:
  5411 ;;		_vfprintf
  5412 ;; This function is called by:
  5413 ;;		_clear_screen
  5414 ;;		_text_colour
  5415 ;;		_print_title
  5416 ;;		_bios_waiting
  5417 ;;		_bios_menu_top
  5418 ;;		_bios_menu_speed
  5419 ;;		_bios_menu_baud
  5420 ;;		_bios_menu_colour
  5421 ;;		_menu_print_colour
  5422 ;; This function uses a non-reentrant model
  5423 ;;
  5424                           
  5425                           	psect	text30
  5426  0013B6                     __ptext30:
  5427                           	callstack 0
  5428  0013B6                     _printf:
  5429                           	callstack 114
  5430                           
  5431                           ; BSR set to: 5
  5432                           
  5433                           ; BSR set to: 5
  5434                           ;incstack = 0
  5435  0013B6  0E98               	movlw	low (?_printf+2)
  5436  0013B8  6F9C               	movwf	printf@ap& (0+255),b
  5437  0013BA  0E05               	movlw	high (?_printf+2)
  5438  0013BC  6F9D               	movwf	(printf@ap+1)& (0+255),b
  5439                           
  5440                           ; BSR set to: 5
  5441  0013BE  0E00               	movlw	0
  5442  0013C0  6F8E               	movwf	vfprintf@fp& (0+255),b
  5443  0013C2  0E00               	movlw	0
  5444  0013C4  6F8F               	movwf	(vfprintf@fp+1)& (0+255),b
  5445  0013C6  C596  F590         	movff	printf@fmt,vfprintf@fmt
  5446  0013CA  C597  F591         	movff	printf@fmt+1,vfprintf@fmt+1
  5447  0013CE  0E9C               	movlw	low printf@ap
  5448  0013D0  6F92               	movwf	vfprintf@ap& (0+255),b
  5449  0013D2  0E05               	movlw	high printf@ap
  5450  0013D4  6F93               	movwf	(vfprintf@ap+1)& (0+255),b
  5451  0013D6  EC8E  F007         	call	_vfprintf	;wreg free
  5452                           
  5453                           ; BSR set to: 5
  5454  0013DA  0012               	return		;funcret
  5455  0013DC                     __end_of_printf:
  5456                           	callstack 0
  5457                           
  5458 ;; *************** function _vfprintf *****************
  5459 ;; Defined at:
  5460 ;;		line 1390 in file "/opt/microchip/xc8/v2.36/pic/sources/c99/common/doprnt.c"
  5461 ;; Parameters:    Size  Location     Type
  5462 ;;  fp              2   46[BANK5 ] PTR struct _IO_FILE
  5463 ;;		 -> NULL(0), 
  5464 ;;  fmt             2   48[BANK5 ] PTR const unsigned char 
  5465 ;;		 -> STR_58(7), STR_57(6), STR_56(9), STR_55(6), 
  5466 ;;		 -> STR_54(8), STR_53(7), STR_52(5), STR_51(16), 
  5467 ;;		 -> STR_50(13), STR_49(12), STR_48(15), STR_47(12), 
  5468 ;;		 -> STR_46(14), STR_45(13), STR_44(11), STR_43(17), 
  5469 ;;		 -> STR_42(16), STR_41(14), STR_40(13), STR_39(13), 
  5470 ;;		 -> STR_38(12), STR_37(20), STR_36(16), STR_35(12), 
  5471 ;;		 -> STR_34(12), STR_33(12), STR_32(28), STR_31(16), 
  5472 ;;		 -> STR_30(19), STR_29(22), STR_28(23), STR_27(3), 
  5473 ;;		 -> STR_26(3), STR_25(3), STR_24(3), STR_23(3), 
  5474 ;;		 -> STR_22(30), STR_21(2), STR_20(24), STR_19(26), 
  5475 ;;		 -> STR_18(27), STR_17(27), STR_16(28), STR_15(28), 
  5476 ;;		 -> STR_14(26), STR_13(25), STR_12(25), STR_11(25), 
  5477 ;;		 -> STR_10(26), STR_9(27), STR_8(27), STR_7(25), 
  5478 ;;		 -> STR_6(19), STR_5(21), STR_4(22), STR_3(22), 
  5479 ;;		 -> STR_2(7), STR_1(16), 
  5480 ;;  ap              2   50[BANK5 ] PTR PTR void 
  5481 ;;		 -> printf@ap(2), 
  5482 ;; Auto vars:     Size  Location     Type
  5483 ;;  cfmt            2   52[BANK5 ] PTR unsigned char 
  5484 ;;		 -> STR_58(7), STR_57(6), STR_56(9), STR_55(6), 
  5485 ;;		 -> STR_54(8), STR_53(7), STR_52(5), STR_51(16), 
  5486 ;;		 -> STR_50(13), STR_49(12), STR_48(15), STR_47(12), 
  5487 ;;		 -> STR_46(14), STR_45(13), STR_44(11), STR_43(17), 
  5488 ;;		 -> STR_42(16), STR_41(14), STR_40(13), STR_39(13), 
  5489 ;;		 -> STR_38(12), STR_37(20), STR_36(16), STR_35(12), 
  5490 ;;		 -> STR_34(12), STR_33(12), STR_32(28), STR_31(16), 
  5491 ;;		 -> STR_30(19), STR_29(22), STR_28(23), STR_27(3), 
  5492 ;;		 -> STR_26(3), STR_25(3), STR_24(3), STR_23(3), 
  5493 ;;		 -> STR_22(30), STR_21(2), STR_20(24), STR_19(26), 
  5494 ;;		 -> STR_18(27), STR_17(27), STR_16(28), STR_15(28), 
  5495 ;;		 -> STR_14(26), STR_13(25), STR_12(25), STR_11(25), 
  5496 ;;		 -> STR_10(26), STR_9(27), STR_8(27), STR_7(25), 
  5497 ;;		 -> STR_6(19), STR_5(21), STR_4(22), STR_3(22), 
  5498 ;;		 -> STR_2(7), STR_1(16), 
  5499 ;; Return value:  Size  Location     Type
  5500 ;;                  2   46[BANK5 ] int 
  5501 ;; Registers used:
  5502 ;;		wreg, fsr1l, fsr1h, fsr2l, fsr2h, status,2, status,0, tblptrl, tblptrh, tblptru, cstack
  5503 ;; Tracked objects:
  5504 ;;		On entry : 3F/5
  5505 ;;		On exit  : 3F/5
  5506 ;;		Unchanged: 0/0
  5507 ;; Data sizes:     COMRAM   BANK5   BANK6   BANK7   BANK8
  5508 ;;      Params:         0       6       0       0       0
  5509 ;;      Locals:         0       2       0       0       0
  5510 ;;      Temps:          0       0       0       0       0
  5511 ;;      Totals:         0       8       0       0       0
  5512 ;;Total ram usage:        8 bytes
  5513 ;; Hardware stack levels used: 1
  5514 ;; Hardware stack levels required when called: 10
  5515 ;; This function calls:
  5516 ;;		_vfpfcnvrt
  5517 ;; This function is called by:
  5518 ;;		_printf
  5519 ;; This function uses a non-reentrant model
  5520 ;;
  5521                           
  5522                           	psect	text31
  5523  000F1C                     __ptext31:
  5524                           	callstack 0
  5525  000F1C                     _vfprintf:
  5526                           	callstack 114
  5527                           
  5528                           ; BSR set to: 5
  5529                           ;/opt/microchip/xc8/v2.36/pic/sources/c99/common/doprnt.c: 1390: int vfprintf(FILE *fp, 
      +                          const char *fmt, va_list ap);/opt/microchip/xc8/v2.36/pic/sources/c99/common/doprnt.c: 1
      +                          391: {;/opt/microchip/xc8/v2.36/pic/sources/c99/common/doprnt.c: 1393:     char *cfmt;;/
      +                          opt/microchip/xc8/v2.36/pic/sources/c99/common/doprnt.c: 1395:     cfmt = (char *)fmt;
  5530                           
  5531                           ; BSR set to: 5
  5532                           ;incstack = 0
  5533  000F1C  C590  F594         	movff	vfprintf@fmt,vfprintf@cfmt
  5534  000F20  C591  F595         	movff	vfprintf@fmt+1,vfprintf@cfmt+1
  5535                           
  5536                           ; BSR set to: 5
  5537                           ;/opt/microchip/xc8/v2.36/pic/sources/c99/common/doprnt.c: 1396:     nout = 0;
  5538  000F24  0E00               	movlw	0
  5539  000F26  6FA6               	movwf	(_nout+1)& (0+255),b
  5540  000F28  0E00               	movlw	0
  5541  000F2A  6FA5               	movwf	_nout& (0+255),b
  5542                           
  5543                           ;/opt/microchip/xc8/v2.36/pic/sources/c99/common/doprnt.c: 1397:     while (*cfmt) {
  5544  000F2C  D013               	goto	l3351
  5545  000F2E                     l3349:
  5546                           
  5547                           ; BSR set to: 5
  5548                           ;/opt/microchip/xc8/v2.36/pic/sources/c99/common/doprnt.c: 1398:         nout += vfpfcnv
      +                          rt(fp, &cfmt, ap);
  5549  000F2E  C58E  F580         	movff	vfprintf@fp,vfpfcnvrt@fp
  5550  000F32  C58F  F581         	movff	vfprintf@fp+1,vfpfcnvrt@fp+1
  5551  000F36  0E94               	movlw	low vfprintf@cfmt
  5552  000F38  6F82               	movwf	vfpfcnvrt@fmt& (0+255),b
  5553  000F3A  0E05               	movlw	high vfprintf@cfmt
  5554  000F3C  6F83               	movwf	(vfpfcnvrt@fmt+1)& (0+255),b
  5555  000F3E  C592  F584         	movff	vfprintf@ap,vfpfcnvrt@ap
  5556  000F42  C593  F585         	movff	vfprintf@ap+1,vfpfcnvrt@ap+1
  5557  000F46  EC35  F001         	call	_vfpfcnvrt	;wreg free
  5558  000F4A  0105               	movlb	5	; () banked
  5559  000F4C  5180               	movf	?_vfpfcnvrt& (0+255),w,b
  5560  000F4E  27A5               	addwf	_nout& (0+255),f,b
  5561  000F50  5181               	movf	(?_vfpfcnvrt+1)& (0+255),w,b
  5562  000F52  23A6               	addwfc	(_nout+1)& (0+255),f,b
  5563  000F54                     l3351:
  5564                           
  5565                           ; BSR set to: 5
  5566                           ;/opt/microchip/xc8/v2.36/pic/sources/c99/common/doprnt.c: 1397:     while (*cfmt) {
  5567  000F54  0061  F650  F4F6   	movff	vfprintf@cfmt,tblptrl
  5568  000F5A  0061  F654  F4F7   	movff	vfprintf@cfmt+1,tblptrh
  5569  000F60                     	if	0	;tblptru may be non-zero
  5570  000F60                     	endif
  5571  000F60                     	if	0	;tblptru may be non-zero
  5572  000F60                     	endif
  5573  000F60  0008               	tblrd		*
  5574  000F62  50F5               	movf	tablat,w,c
  5575  000F64  0900               	iorlw	0
  5576  000F66  A4D8               	btfss	status,2,c
  5577  000F68  D7E2               	goto	l3349
  5578                           
  5579                           ; BSR set to: 5
  5580                           ;/opt/microchip/xc8/v2.36/pic/sources/c99/common/doprnt.c: 1400:     return nout;
  5581  000F6A  C5A5  F58E         	movff	_nout,?_vfprintf
  5582  000F6E  C5A6  F58F         	movff	_nout+1,?_vfprintf+1
  5583                           
  5584                           ; BSR set to: 5
  5585  000F72  0012               	return		;funcret
  5586  000F74                     __end_of_vfprintf:
  5587                           	callstack 0
  5588                           
  5589 ;; *************** function _vfpfcnvrt *****************
  5590 ;; Defined at:
  5591 ;;		line 692 in file "/opt/microchip/xc8/v2.36/pic/sources/c99/common/doprnt.c"
  5592 ;; Parameters:    Size  Location     Type
  5593 ;;  fp              2   32[BANK5 ] PTR struct _IO_FILE
  5594 ;;		 -> NULL(0), 
  5595 ;;  fmt             2   34[BANK5 ] PTR PTR unsigned char 
  5596 ;;		 -> vfprintf@cfmt(2), 
  5597 ;;  ap              2   36[BANK5 ] PTR PTR void 
  5598 ;;		 -> printf@ap(2), 
  5599 ;; Auto vars:     Size  Location     Type
  5600 ;;  llu             8   38[BANK5 ] unsigned long long 
  5601 ;;  ll              8    0        long long 
  5602 ;;  f               4    0        long long 
  5603 ;;  vp              3    0        PTR void 
  5604 ;;  ct              3    0        unsigned char [3]
  5605 ;;  cp              3    0        PTR unsigned char 
  5606 ;;  i               2    0        int 
  5607 ;;  done            2    0        int 
  5608 ;;  c               1    0        unsigned char 
  5609 ;; Return value:  Size  Location     Type
  5610 ;;                  2   32[BANK5 ] int 
  5611 ;; Registers used:
  5612 ;;		wreg, fsr1l, fsr1h, fsr2l, fsr2h, status,2, status,0, tblptrl, tblptrh, tblptru, cstack
  5613 ;; Tracked objects:
  5614 ;;		On entry : 3F/5
  5615 ;;		On exit  : 0/0
  5616 ;;		Unchanged: 0/0
  5617 ;; Data sizes:     COMRAM   BANK5   BANK6   BANK7   BANK8
  5618 ;;      Params:         0       6       0       0       0
  5619 ;;      Locals:         0       8       0       0       0
  5620 ;;      Temps:          4       0       0       0       0
  5621 ;;      Totals:         4      14       0       0       0
  5622 ;;Total ram usage:       18 bytes
  5623 ;; Hardware stack levels used: 1
  5624 ;; Hardware stack levels required when called: 9
  5625 ;; This function calls:
  5626 ;;		_fputc
  5627 ;;		_utoa
  5628 ;; This function is called by:
  5629 ;;		_vfprintf
  5630 ;; This function uses a non-reentrant model
  5631 ;;
  5632                           
  5633                           	psect	text32
  5634  00026A                     __ptext32:
  5635                           	callstack 0
  5636  00026A                     _vfpfcnvrt:
  5637                           	callstack 114
  5638                           
  5639                           ; BSR set to: 5
  5640                           ;/opt/microchip/xc8/v2.36/pic/sources/c99/common/doprnt.c: 692: static int vfpfcnvrt(FIL
      +                          E *fp, char *fmt[], va_list ap);/opt/microchip/xc8/v2.36/pic/sources/c99/common/doprnt.c
      +                          : 693: {;/opt/microchip/xc8/v2.36/pic/sources/c99/common/doprnt.c: 694:     char c, *cp,
      +                           ct[3];;/opt/microchip/xc8/v2.36/pic/sources/c99/common/doprnt.c: 695:     int done, i;;
      +                          /opt/microchip/xc8/v2.36/pic/sources/c99/common/doprnt.c: 696:     long long ll;;/opt/mi
      +                          crochip/xc8/v2.36/pic/sources/c99/common/doprnt.c: 697:     unsigned long long llu;
  5641                           
  5642                           ; BSR set to: 5
  5643                           ;incstack = 0
  5644  00026A  0061  F608  F4D9   	movff	vfpfcnvrt@fmt,fsr2l
  5645  000270  0061  F60C  F4DA   	movff	vfpfcnvrt@fmt+1,fsr2h
  5646  000276  C4DE F4F6          	movff	postinc2,tblptrl
  5647  00027A  C4DD F4F7          	movff	postdec2,tblptrh
  5648  00027E                     	if	0	;tblptru may be non-zero
  5649  00027E                     	endif
  5650  00027E                     	if	0	;tblptru may be non-zero
  5651  00027E                     	endif
  5652  00027E  0008               	tblrd		*
  5653  000280  50F5               	movf	tablat,w,c
  5654  000282  0A25               	xorlw	37
  5655  000284  A4D8               	btfss	status,2,c
  5656  000286  D0A2               	goto	l3337
  5657                           
  5658                           ; BSR set to: 5
  5659                           ;/opt/microchip/xc8/v2.36/pic/sources/c99/common/doprnt.c: 703:         ++*fmt;
  5660  000288  0061  F608  F4D9   	movff	vfpfcnvrt@fmt,fsr2l
  5661  00028E  0061  F60C  F4DA   	movff	vfpfcnvrt@fmt+1,fsr2h
  5662  000294  2ADE               	incf	postinc2,f,c
  5663  000296  0E00               	movlw	0
  5664  000298  22DD               	addwfc	postdec2,f,c
  5665                           
  5666                           ; BSR set to: 5
  5667                           ;/opt/microchip/xc8/v2.36/pic/sources/c99/common/doprnt.c: 705:         flags = width = 
      +                          0;
  5668  00029A  0E00               	movlw	0
  5669  00029C  6E40               	movwf	(_width+1)^(0+1280),c
  5670  00029E  0E00               	movlw	0
  5671  0002A0  6E3F               	movwf	_width^(0+1280),c
  5672  0002A2  C53F  F543         	movff	_width,_flags
  5673  0002A6  C540  F544         	movff	_width+1,_flags+1
  5674                           
  5675                           ; BSR set to: 5
  5676                           ;/opt/microchip/xc8/v2.36/pic/sources/c99/common/doprnt.c: 706:         prec = -1;
  5677  0002AA  6841               	setf	_prec^(0+1280),c
  5678  0002AC  6842               	setf	(_prec+1)^(0+1280),c
  5679                           
  5680                           ; BSR set to: 5
  5681                           ;/opt/microchip/xc8/v2.36/pic/sources/c99/common/doprnt.c: 1204:         if (*fmt[0] == 
      +                          'u') {
  5682  0002AE  0061  F608  F4D9   	movff	vfpfcnvrt@fmt,fsr2l
  5683  0002B4  0061  F60C  F4DA   	movff	vfpfcnvrt@fmt+1,fsr2h
  5684  0002BA  C4DE F4F6          	movff	postinc2,tblptrl
  5685  0002BE  C4DD F4F7          	movff	postdec2,tblptrh
  5686  0002C2                     	if	0	;tblptru may be non-zero
  5687  0002C2                     	endif
  5688  0002C2                     	if	0	;tblptru may be non-zero
  5689  0002C2                     	endif
  5690  0002C2  0008               	tblrd		*
  5691  0002C4  50F5               	movf	tablat,w,c
  5692  0002C6  0A75               	xorlw	117
  5693  0002C8  A4D8               	btfss	status,2,c
  5694  0002CA  D04A               	goto	l3321
  5695                           
  5696                           ; BSR set to: 5
  5697                           ;/opt/microchip/xc8/v2.36/pic/sources/c99/common/doprnt.c: 1206:             ++*fmt;
  5698  0002CC  0061  F608  F4D9   	movff	vfpfcnvrt@fmt,fsr2l
  5699  0002D2  0061  F60C  F4DA   	movff	vfpfcnvrt@fmt+1,fsr2h
  5700  0002D8  2ADE               	incf	postinc2,f,c
  5701  0002DA  0E00               	movlw	0
  5702  0002DC  22DD               	addwfc	postdec2,f,c
  5703                           
  5704                           ;/opt/microchip/xc8/v2.36/pic/sources/c99/common/doprnt.c: 1207:             llu = (unsi
      +                          gned long long)(*(unsigned int *)__va_arg(*(unsigned int **)ap, (unsigned int)0));
  5705  0002DE  0061  F610  F4D9   	movff	vfpfcnvrt@ap,fsr2l
  5706  0002E4  0061  F614  F4DA   	movff	vfpfcnvrt@ap+1,fsr2h
  5707  0002EA  0061 F37C  F535    	movff	indf2,??_vfpfcnvrt
  5708  0002F0  0E02               	movlw	2
  5709  0002F2  26DE               	addwf	postinc2,f,c
  5710  0002F4  0061 F37C  F536    	movff	indf2,??_vfpfcnvrt+1
  5711  0002FA  0E00               	movlw	0
  5712  0002FC  22DD               	addwfc	postdec2,f,c
  5713  0002FE  0061  F4D4  F4D9   	movff	??_vfpfcnvrt,fsr2l
  5714  000304  0061  F4D8  F4DA   	movff	??_vfpfcnvrt+1,fsr2h
  5715  00030A  0061 F378  F537    	movff	postinc2,??_vfpfcnvrt+2
  5716  000310  0061 F374  F538    	movff	postdec2,??_vfpfcnvrt+3
  5717  000316  C537  F586         	movff	??_vfpfcnvrt+2,vfpfcnvrt@llu
  5718  00031A  C538  F587         	movff	??_vfpfcnvrt+3,vfpfcnvrt@llu+1
  5719  00031E  6B88               	clrf	(vfpfcnvrt@llu+2)& (0+255),b
  5720  000320  6B89               	clrf	(vfpfcnvrt@llu+3)& (0+255),b
  5721  000322  6B8A               	clrf	(vfpfcnvrt@llu+4)& (0+255),b
  5722  000324  6B8B               	clrf	(vfpfcnvrt@llu+5)& (0+255),b
  5723  000326  6B8C               	clrf	(vfpfcnvrt@llu+6)& (0+255),b
  5724  000328  6B8D               	clrf	(vfpfcnvrt@llu+7)& (0+255),b
  5725                           
  5726                           ; BSR set to: 5
  5727                           ;/opt/microchip/xc8/v2.36/pic/sources/c99/common/doprnt.c: 1209:             return utoa
      +                          (fp, llu);
  5728  00032A  C580  F560         	movff	vfpfcnvrt@fp,utoa@fp
  5729  00032E  C581  F561         	movff	vfpfcnvrt@fp+1,utoa@fp+1
  5730  000332  C586  F562         	movff	vfpfcnvrt@llu,utoa@d
  5731  000336  C587  F563         	movff	vfpfcnvrt@llu+1,utoa@d+1
  5732  00033A  C588  F564         	movff	vfpfcnvrt@llu+2,utoa@d+2
  5733  00033E  C589  F565         	movff	vfpfcnvrt@llu+3,utoa@d+3
  5734  000342  C58A  F566         	movff	vfpfcnvrt@llu+4,utoa@d+4
  5735  000346  C58B  F567         	movff	vfpfcnvrt@llu+5,utoa@d+5
  5736  00034A  C58C  F568         	movff	vfpfcnvrt@llu+6,utoa@d+6
  5737  00034E  C58D  F569         	movff	vfpfcnvrt@llu+7,utoa@d+7
  5738  000352  EC5F  F000         	call	_utoa	;wreg free
  5739  000356  C560  F580         	movff	?_utoa,?_vfpfcnvrt
  5740  00035A  C561  F581         	movff	?_utoa+1,?_vfpfcnvrt+1
  5741  00035E  0012               	return	
  5742  000360                     l3321:
  5743                           
  5744                           ; BSR set to: 5
  5745                           ;/opt/microchip/xc8/v2.36/pic/sources/c99/common/doprnt.c: 1372:         if ((*fmt)[0] =
      +                          = '%') {
  5746  000360  0061  F608  F4D9   	movff	vfpfcnvrt@fmt,fsr2l
  5747  000366  0061  F60C  F4DA   	movff	vfpfcnvrt@fmt+1,fsr2h
  5748  00036C  C4DE F4F6          	movff	postinc2,tblptrl
  5749  000370  C4DD F4F7          	movff	postdec2,tblptrh
  5750  000374                     	if	0	;tblptru may be non-zero
  5751  000374                     	endif
  5752  000374                     	if	0	;tblptru may be non-zero
  5753  000374                     	endif
  5754  000374  0008               	tblrd		*
  5755  000376  50F5               	movf	tablat,w,c
  5756  000378  0A25               	xorlw	37
  5757  00037A  A4D8               	btfss	status,2,c
  5758  00037C  D019               	goto	l3331
  5759                           
  5760                           ; BSR set to: 5
  5761                           ;/opt/microchip/xc8/v2.36/pic/sources/c99/common/doprnt.c: 1373:             ++*fmt;
  5762  00037E  0061  F608  F4D9   	movff	vfpfcnvrt@fmt,fsr2l
  5763  000384  0061  F60C  F4DA   	movff	vfpfcnvrt@fmt+1,fsr2h
  5764  00038A  2ADE               	incf	postinc2,f,c
  5765  00038C  0E00               	movlw	0
  5766  00038E  22DD               	addwfc	postdec2,f,c
  5767                           
  5768                           ; BSR set to: 5
  5769                           ;/opt/microchip/xc8/v2.36/pic/sources/c99/common/doprnt.c: 1374:             fputc((int)
      +                          '%', fp);
  5770  000390  0E00               	movlw	0
  5771  000392  6E1B               	movwf	(fputc@c+1)^(0+1280),c
  5772  000394  0E25               	movlw	37
  5773  000396  6E1A               	movwf	fputc@c^(0+1280),c
  5774  000398  C580  F51C         	movff	vfpfcnvrt@fp,fputc@fp
  5775  00039C  C581  F51D         	movff	vfpfcnvrt@fp+1,fputc@fp+1
  5776  0003A0  EC2B  F007         	call	_fputc	;wreg free
  5777  0003A4                     l3327:
  5778                           
  5779                           ;/opt/microchip/xc8/v2.36/pic/sources/c99/common/doprnt.c: 1375:             return 1;
  5780  0003A4  0E00               	movlw	0
  5781  0003A6  0105               	movlb	5	; () banked
  5782  0003A8  6F81               	movwf	(?_vfpfcnvrt+1)& (0+255),b
  5783  0003AA  0E01               	movlw	1
  5784  0003AC  6F80               	movwf	?_vfpfcnvrt& (0+255),b
  5785  0003AE  0012               	return	
  5786  0003B0                     l3331:
  5787                           
  5788                           ; BSR set to: 5
  5789                           ;/opt/microchip/xc8/v2.36/pic/sources/c99/common/doprnt.c: 1379:         ++*fmt;
  5790  0003B0  0061  F608  F4D9   	movff	vfpfcnvrt@fmt,fsr2l
  5791  0003B6  0061  F60C  F4DA   	movff	vfpfcnvrt@fmt+1,fsr2h
  5792  0003BC  2ADE               	incf	postinc2,f,c
  5793  0003BE  0E00               	movlw	0
  5794  0003C0  22DD               	addwfc	postdec2,f,c
  5795                           
  5796                           ; BSR set to: 5
  5797                           ;/opt/microchip/xc8/v2.36/pic/sources/c99/common/doprnt.c: 1380:         return 0;
  5798  0003C2  0E00               	movlw	0
  5799  0003C4  6F81               	movwf	(?_vfpfcnvrt+1)& (0+255),b
  5800  0003C6  0E00               	movlw	0
  5801  0003C8  6F80               	movwf	?_vfpfcnvrt& (0+255),b
  5802  0003CA  0012               	return	
  5803  0003CC                     l3337:
  5804                           
  5805                           ; BSR set to: 5
  5806                           ;/opt/microchip/xc8/v2.36/pic/sources/c99/common/doprnt.c: 1384:     fputc((int)(*fmt)[0
      +                          ], fp);
  5807  0003CC  0061  F608  F4D9   	movff	vfpfcnvrt@fmt,fsr2l
  5808  0003D2  0061  F60C  F4DA   	movff	vfpfcnvrt@fmt+1,fsr2h
  5809  0003D8  C4DE F4F6          	movff	postinc2,tblptrl
  5810  0003DC  C4DD F4F7          	movff	postdec2,tblptrh
  5811  0003E0                     	if	0	;tblptru may be non-zero
  5812  0003E0                     	endif
  5813  0003E0                     	if	0	;tblptru may be non-zero
  5814  0003E0                     	endif
  5815  0003E0  0008               	tblrd		*
  5816  0003E2  50F5               	movf	tablat,w,c
  5817  0003E4  6E1A               	movwf	fputc@c^(0+1280),c
  5818  0003E6  6A1B               	clrf	(fputc@c+1)^(0+1280),c
  5819  0003E8  C580  F51C         	movff	vfpfcnvrt@fp,fputc@fp
  5820  0003EC  C581  F51D         	movff	vfpfcnvrt@fp+1,fputc@fp+1
  5821  0003F0  EC2B  F007         	call	_fputc	;wreg free
  5822                           
  5823                           ;/opt/microchip/xc8/v2.36/pic/sources/c99/common/doprnt.c: 1385:     ++*fmt;
  5824  0003F4  0061  F608  F4D9   	movff	vfpfcnvrt@fmt,fsr2l
  5825  0003FA  0061  F60C  F4DA   	movff	vfpfcnvrt@fmt+1,fsr2h
  5826  000400  2ADE               	incf	postinc2,f,c
  5827  000402  0E00               	movlw	0
  5828  000404  22DD               	addwfc	postdec2,f,c
  5829  000406  D7CE               	goto	l3327
  5830  000408                     __end_of_vfpfcnvrt:
  5831                           	callstack 0
  5832                           
  5833 ;; *************** function _utoa *****************
  5834 ;; Defined at:
  5835 ;;		line 615 in file "/opt/microchip/xc8/v2.36/pic/sources/c99/common/doprnt.c"
  5836 ;; Parameters:    Size  Location     Type
  5837 ;;  fp              2    0[BANK5 ] PTR struct _IO_FILE
  5838 ;;		 -> NULL(0), 
  5839 ;;  d               8    2[BANK5 ] unsigned long long 
  5840 ;; Auto vars:     Size  Location     Type
  5841 ;;  n               8   22[BANK5 ] unsigned long long 
  5842 ;;  i               2   30[BANK5 ] int 
  5843 ;;  w               2   20[BANK5 ] int 
  5844 ;;  p               2   18[BANK5 ] int 
  5845 ;; Return value:  Size  Location     Type
  5846 ;;                  2    0[BANK5 ] int 
  5847 ;; Registers used:
  5848 ;;		wreg, fsr1l, fsr1h, fsr2l, fsr2h, status,2, status,0, cstack
  5849 ;; Tracked objects:
  5850 ;;		On entry : 3F/5
  5851 ;;		On exit  : 0/0
  5852 ;;		Unchanged: 0/0
  5853 ;; Data sizes:     COMRAM   BANK5   BANK6   BANK7   BANK8
  5854 ;;      Params:         0      10       0       0       0
  5855 ;;      Locals:         0      14       0       0       0
  5856 ;;      Temps:          0       8       0       0       0
  5857 ;;      Totals:         0      32       0       0       0
  5858 ;;Total ram usage:       32 bytes
  5859 ;; Hardware stack levels used: 1
  5860 ;; Hardware stack levels required when called: 8
  5861 ;; This function calls:
  5862 ;;		___lodiv
  5863 ;;		___lomod
  5864 ;;		_pad
  5865 ;; This function is called by:
  5866 ;;		_vfpfcnvrt
  5867 ;; This function uses a non-reentrant model
  5868 ;;
  5869                           
  5870                           	psect	text33
  5871  0000BE                     __ptext33:
  5872                           	callstack 0
  5873  0000BE                     _utoa:
  5874                           	callstack 114
  5875                           
  5876                           ; BSR set to: 5
  5877                           ;/opt/microchip/xc8/v2.36/pic/sources/c99/common/doprnt.c: 615: static int utoa(FILE *fp
      +                          , unsigned long long d);/opt/microchip/xc8/v2.36/pic/sources/c99/common/doprnt.c: 616: {
      +                          ;/opt/microchip/xc8/v2.36/pic/sources/c99/common/doprnt.c: 617:     int i, p, w;;/opt/mi
      +                          crochip/xc8/v2.36/pic/sources/c99/common/doprnt.c: 618:     unsigned long long n;;/opt/m
      +                          icrochip/xc8/v2.36/pic/sources/c99/common/doprnt.c: 621:     if (!(prec < 0)) {
  5878                           
  5879                           ;incstack = 0
  5880  0000BE  AE42               	btfss	(_prec+1)^(0+1280),7,c
  5881                           
  5882                           ; BSR set to: 5
  5883                           ;/opt/microchip/xc8/v2.36/pic/sources/c99/common/doprnt.c: 622:         flags &= ~(1 << 
      +                          1);
  5884  0000C0  9243               	bcf	_flags^(0+1280),1,c
  5885                           
  5886                           ; BSR set to: 5
  5887                           ;/opt/microchip/xc8/v2.36/pic/sources/c99/common/doprnt.c: 624:     p = (0 < prec) ? pre
      +                          c : 1;
  5888  0000C2  BE42               	btfsc	(_prec+1)^(0+1280),7,c
  5889  0000C4  D005               	goto	u1790
  5890  0000C6  5042               	movf	(_prec+1)^(0+1280),w,c
  5891  0000C8  E108               	bnz	l1258
  5892  0000CA  0441               	decf	_prec^(0+1280),w,c
  5893  0000CC  B0D8               	btfsc	status,0,c
  5894  0000CE  D005               	goto	l1258
  5895  0000D0                     u1790:
  5896                           
  5897                           ; BSR set to: 5
  5898  0000D0  0E00               	movlw	0
  5899  0000D2  6F73               	movwf	(utoa@p+1)& (0+255),b
  5900  0000D4  0E01               	movlw	1
  5901  0000D6  6F72               	movwf	utoa@p& (0+255),b
  5902  0000D8  D004               	goto	l1260
  5903  0000DA                     l1258:
  5904                           
  5905                           ; BSR set to: 5
  5906  0000DA  C541  F572         	movff	_prec,utoa@p
  5907  0000DE  C542  F573         	movff	_prec+1,utoa@p+1
  5908  0000E2                     l1260:
  5909                           
  5910                           ; BSR set to: 5
  5911                           ;/opt/microchip/xc8/v2.36/pic/sources/c99/common/doprnt.c: 625:     w = width;
  5912  0000E2  C53F  F574         	movff	_width,utoa@w
  5913  0000E6  C540  F575         	movff	_width+1,utoa@w+1
  5914                           
  5915                           ;/opt/microchip/xc8/v2.36/pic/sources/c99/common/doprnt.c: 628:     n = d;
  5916  0000EA  C562  F576         	movff	utoa@d,utoa@n
  5917  0000EE  C563  F577         	movff	utoa@d+1,utoa@n+1
  5918  0000F2  C564  F578         	movff	utoa@d+2,utoa@n+2
  5919  0000F6  C565  F579         	movff	utoa@d+3,utoa@n+3
  5920  0000FA  C566  F57A         	movff	utoa@d+4,utoa@n+4
  5921  0000FE  C567  F57B         	movff	utoa@d+5,utoa@n+5
  5922  000102  C568  F57C         	movff	utoa@d+6,utoa@n+6
  5923  000106  C569  F57D         	movff	utoa@d+7,utoa@n+7
  5924                           
  5925                           ; BSR set to: 5
  5926                           ;/opt/microchip/xc8/v2.36/pic/sources/c99/common/doprnt.c: 629:     i = sizeof(dbuf) - 1
      +                          ;
  5927  00010A  0E00               	movlw	0
  5928  00010C  6F7F               	movwf	(utoa@i+1)& (0+255),b
  5929  00010E  0E1F               	movlw	31
  5930  000110  6F7E               	movwf	utoa@i& (0+255),b
  5931                           
  5932                           ; BSR set to: 5
  5933                           ;/opt/microchip/xc8/v2.36/pic/sources/c99/common/doprnt.c: 630:     dbuf[i] = '\0';
  5934  000112  0E00               	movlw	0
  5935  000114  6FC7               	movwf	(_dbuf+31)& (0+255),b
  5936                           
  5937                           ;/opt/microchip/xc8/v2.36/pic/sources/c99/common/doprnt.c: 631:     while (i && (n || (0
      +                           < p) || ((0 < w) && (flags & (1 << 1))))) {
  5938  000116  D076               	goto	l3291
  5939  000118                     l3281:
  5940                           
  5941                           ; BSR set to: 5
  5942                           ;/opt/microchip/xc8/v2.36/pic/sources/c99/common/doprnt.c: 632:         --i;
  5943  000118  077E               	decf	utoa@i& (0+255),f,b
  5944  00011A  A0D8               	btfss	status,0,c
  5945  00011C  077F               	decf	(utoa@i+1)& (0+255),f,b
  5946                           
  5947                           ; BSR set to: 5
  5948                           ;/opt/microchip/xc8/v2.36/pic/sources/c99/common/doprnt.c: 633:         dbuf[i] = '0' + 
      +                          (n % 10);
  5949  00011E  0EA8               	movlw	low _dbuf
  5950  000120  257E               	addwf	utoa@i& (0+255),w,b
  5951  000122  6ED9               	movwf	fsr2l,c
  5952  000124  0E05               	movlw	high _dbuf
  5953  000126  217F               	addwfc	(utoa@i+1)& (0+255),w,b
  5954  000128  6EDA               	movwf	fsr2h,c
  5955  00012A  C576  F519         	movff	utoa@n,___lomod@dividend
  5956  00012E  C577  F51A         	movff	utoa@n+1,___lomod@dividend+1
  5957  000132  C578  F51B         	movff	utoa@n+2,___lomod@dividend+2
  5958  000136  C579  F51C         	movff	utoa@n+3,___lomod@dividend+3
  5959  00013A  C57A  F51D         	movff	utoa@n+4,___lomod@dividend+4
  5960  00013E  C57B  F51E         	movff	utoa@n+5,___lomod@dividend+5
  5961  000142  C57C  F51F         	movff	utoa@n+6,___lomod@dividend+6
  5962  000146  C57D  F520         	movff	utoa@n+7,___lomod@dividend+7
  5963  00014A  0E0A               	movlw	10
  5964  00014C  6E21               	movwf	___lomod@divisor^(0+1280),c
  5965  00014E  0E00               	movlw	0
  5966  000150  6E22               	movwf	(___lomod@divisor+1)^(0+1280),c
  5967  000152  0E00               	movlw	0
  5968  000154  6E23               	movwf	(___lomod@divisor+2)^(0+1280),c
  5969  000156  0E00               	movlw	0
  5970  000158  6E24               	movwf	(___lomod@divisor+3)^(0+1280),c
  5971  00015A  0E00               	movlw	0
  5972  00015C  6E25               	movwf	(___lomod@divisor+4)^(0+1280),c
  5973  00015E  0E00               	movlw	0
  5974  000160  6E26               	movwf	(___lomod@divisor+5)^(0+1280),c
  5975  000162  0E00               	movlw	0
  5976  000164  6E27               	movwf	(___lomod@divisor+6)^(0+1280),c
  5977  000166  0E00               	movlw	0
  5978  000168  6E28               	movwf	(___lomod@divisor+7)^(0+1280),c
  5979  00016A  EC5C  F004         	call	___lomod	;wreg free
  5980  00016E  C519  F56A         	movff	?___lomod,??_utoa
  5981  000172  C51A  F56B         	movff	?___lomod+1,??_utoa+1
  5982  000176  C51B  F56C         	movff	?___lomod+2,??_utoa+2
  5983  00017A  C51C  F56D         	movff	?___lomod+3,??_utoa+3
  5984  00017E  C51D  F56E         	movff	?___lomod+4,??_utoa+4
  5985  000182  C51E  F56F         	movff	?___lomod+5,??_utoa+5
  5986  000186  C51F  F570         	movff	?___lomod+6,??_utoa+6
  5987  00018A  C520  F571         	movff	?___lomod+7,??_utoa+7
  5988  00018E  516A               	movf	??_utoa& (0+255),w,b
  5989  000190  0F30               	addlw	48
  5990  000192  6EDF               	movwf	indf2,c
  5991                           
  5992                           ; BSR set to: 5
  5993                           ;/opt/microchip/xc8/v2.36/pic/sources/c99/common/doprnt.c: 634:         --p;
  5994  000194  0772               	decf	utoa@p& (0+255),f,b
  5995  000196  A0D8               	btfss	status,0,c
  5996  000198  0773               	decf	(utoa@p+1)& (0+255),f,b
  5997                           
  5998                           ; BSR set to: 5
  5999                           ;/opt/microchip/xc8/v2.36/pic/sources/c99/common/doprnt.c: 635:         --w;
  6000  00019A  0774               	decf	utoa@w& (0+255),f,b
  6001  00019C  A0D8               	btfss	status,0,c
  6002  00019E  0775               	decf	(utoa@w+1)& (0+255),f,b
  6003                           
  6004                           ; BSR set to: 5
  6005                           ;/opt/microchip/xc8/v2.36/pic/sources/c99/common/doprnt.c: 636:         n = n / 10;
  6006  0001A0  C576  F519         	movff	utoa@n,___lodiv@dividend
  6007  0001A4  C577  F51A         	movff	utoa@n+1,___lodiv@dividend+1
  6008  0001A8  C578  F51B         	movff	utoa@n+2,___lodiv@dividend+2
  6009  0001AC  C579  F51C         	movff	utoa@n+3,___lodiv@dividend+3
  6010  0001B0  C57A  F51D         	movff	utoa@n+4,___lodiv@dividend+4
  6011  0001B4  C57B  F51E         	movff	utoa@n+5,___lodiv@dividend+5
  6012  0001B8  C57C  F51F         	movff	utoa@n+6,___lodiv@dividend+6
  6013  0001BC  C57D  F520         	movff	utoa@n+7,___lodiv@dividend+7
  6014  0001C0  0E0A               	movlw	10
  6015  0001C2  6E21               	movwf	___lodiv@divisor^(0+1280),c
  6016  0001C4  0E00               	movlw	0
  6017  0001C6  6E22               	movwf	(___lodiv@divisor+1)^(0+1280),c
  6018  0001C8  0E00               	movlw	0
  6019  0001CA  6E23               	movwf	(___lodiv@divisor+2)^(0+1280),c
  6020  0001CC  0E00               	movlw	0
  6021  0001CE  6E24               	movwf	(___lodiv@divisor+3)^(0+1280),c
  6022  0001D0  0E00               	movlw	0
  6023  0001D2  6E25               	movwf	(___lodiv@divisor+4)^(0+1280),c
  6024  0001D4  0E00               	movlw	0
  6025  0001D6  6E26               	movwf	(___lodiv@divisor+5)^(0+1280),c
  6026  0001D8  0E00               	movlw	0
  6027  0001DA  6E27               	movwf	(___lodiv@divisor+6)^(0+1280),c
  6028  0001DC  0E00               	movlw	0
  6029  0001DE  6E28               	movwf	(___lodiv@divisor+7)^(0+1280),c
  6030  0001E0  EC34  F003         	call	___lodiv	;wreg free
  6031  0001E4  C519  F576         	movff	?___lodiv,utoa@n
  6032  0001E8  C51A  F577         	movff	?___lodiv+1,utoa@n+1
  6033  0001EC  C51B  F578         	movff	?___lodiv+2,utoa@n+2
  6034  0001F0  C51C  F579         	movff	?___lodiv+3,utoa@n+3
  6035  0001F4  C51D  F57A         	movff	?___lodiv+4,utoa@n+4
  6036  0001F8  C51E  F57B         	movff	?___lodiv+5,utoa@n+5
  6037  0001FC  C51F  F57C         	movff	?___lodiv+6,utoa@n+6
  6038  000200  C520  F57D         	movff	?___lodiv+7,utoa@n+7
  6039  000204                     l3291:
  6040                           
  6041                           ; BSR set to: 5
  6042                           ;/opt/microchip/xc8/v2.36/pic/sources/c99/common/doprnt.c: 631:     while (i && (n || (0
      +                           < p) || ((0 < w) && (flags & (1 << 1))))) {
  6043  000204  517E               	movf	utoa@i& (0+255),w,b
  6044  000206  117F               	iorwf	(utoa@i+1)& (0+255),w,b
  6045  000208  B4D8               	btfsc	status,2,c
  6046  00020A  D01A               	goto	u1840
  6047                           
  6048                           ; BSR set to: 5
  6049  00020C  5176               	movf	utoa@n& (0+255),w,b
  6050  00020E  1177               	iorwf	(utoa@n+1)& (0+255),w,b
  6051  000210  1178               	iorwf	(utoa@n+2)& (0+255),w,b
  6052  000212  1179               	iorwf	(utoa@n+3)& (0+255),w,b
  6053  000214  117A               	iorwf	(utoa@n+4)& (0+255),w,b
  6054  000216  117B               	iorwf	(utoa@n+5)& (0+255),w,b
  6055  000218  117C               	iorwf	(utoa@n+6)& (0+255),w,b
  6056  00021A  117D               	iorwf	(utoa@n+7)& (0+255),w,b
  6057  00021C  A4D8               	btfss	status,2,c
  6058  00021E  D77C               	goto	l3281
  6059                           
  6060                           ; BSR set to: 5
  6061  000220  BF73               	btfsc	(utoa@p+1)& (0+255),7,b
  6062  000222  D005               	goto	u1820
  6063  000224  5173               	movf	(utoa@p+1)& (0+255),w,b
  6064  000226  E102               	bnz	u1821
  6065  000228  0572               	decf	utoa@p& (0+255),w,b
  6066  00022A  B0D8               	btfsc	status,0,c
  6067  00022C                     u1821:
  6068  00022C  D775               	goto	l3281
  6069  00022E                     u1820:
  6070                           
  6071                           ; BSR set to: 5
  6072  00022E  BF75               	btfsc	(utoa@w+1)& (0+255),7,b
  6073  000230  D007               	goto	u1840
  6074  000232  5175               	movf	(utoa@w+1)& (0+255),w,b
  6075  000234  E103               	bnz	u1830
  6076  000236  0574               	decf	utoa@w& (0+255),w,b
  6077  000238  A0D8               	btfss	status,0,c
  6078  00023A  D002               	goto	u1840
  6079  00023C                     u1830:
  6080                           
  6081                           ; BSR set to: 5
  6082  00023C  B243               	btfsc	_flags^(0+1280),1,c
  6083  00023E  D76C               	goto	l3281
  6084  000240                     u1840:
  6085                           
  6086                           ; BSR set to: 5
  6087                           ;/opt/microchip/xc8/v2.36/pic/sources/c99/common/doprnt.c: 640:     return pad(fp, &dbuf
      +                          [i], w);
  6088  000240  C560  F52A         	movff	utoa@fp,pad@fp
  6089  000244  C561  F52B         	movff	utoa@fp+1,pad@fp+1
  6090  000248  0EA8               	movlw	low _dbuf
  6091  00024A  257E               	addwf	utoa@i& (0+255),w,b
  6092  00024C  6E2C               	movwf	pad@buf^(0+1280),c
  6093  00024E  0E05               	movlw	high _dbuf
  6094  000250  217F               	addwfc	(utoa@i+1)& (0+255),w,b
  6095  000252  6E2D               	movwf	(pad@buf+1)^(0+1280),c
  6096  000254  C574  F52E         	movff	utoa@w,pad@p
  6097  000258  C575  F52F         	movff	utoa@w+1,pad@p+1
  6098  00025C  EC59  F005         	call	_pad	;wreg free
  6099  000260  C52A  F560         	movff	?_pad,?_utoa
  6100  000264  C52B  F561         	movff	?_pad+1,?_utoa+1
  6101  000268  0012               	return		;funcret
  6102  00026A                     __end_of_utoa:
  6103                           	callstack 0
  6104                           
  6105 ;; *************** function _pad *****************
  6106 ;; Defined at:
  6107 ;;		line 72 in file "/opt/microchip/xc8/v2.36/pic/sources/c99/common/doprnt.c"
  6108 ;; Parameters:    Size  Location     Type
  6109 ;;  fp              2   41[COMRAM] PTR struct _IO_FILE
  6110 ;;		 -> NULL(0), 
  6111 ;;  buf             2   43[COMRAM] PTR unsigned char 
  6112 ;;		 -> dbuf(32), 
  6113 ;;  p               2   45[COMRAM] int 
  6114 ;; Auto vars:     Size  Location     Type
  6115 ;;  w               2   50[COMRAM] int 
  6116 ;;  i               2   48[COMRAM] int 
  6117 ;; Return value:  Size  Location     Type
  6118 ;;                  2   41[COMRAM] int 
  6119 ;; Registers used:
  6120 ;;		wreg, fsr1l, fsr1h, fsr2l, fsr2h, status,2, status,0, cstack
  6121 ;; Tracked objects:
  6122 ;;		On entry : 3F/5
  6123 ;;		On exit  : 0/0
  6124 ;;		Unchanged: 0/0
  6125 ;; Data sizes:     COMRAM   BANK5   BANK6   BANK7   BANK8
  6126 ;;      Params:         6       0       0       0       0
  6127 ;;      Locals:         4       0       0       0       0
  6128 ;;      Temps:          1       0       0       0       0
  6129 ;;      Totals:        11       0       0       0       0
  6130 ;;Total ram usage:       11 bytes
  6131 ;; Hardware stack levels used: 1
  6132 ;; Hardware stack levels required when called: 7
  6133 ;; This function calls:
  6134 ;;		_fputc
  6135 ;;		_fputs
  6136 ;;		_strlen
  6137 ;; This function is called by:
  6138 ;;		_utoa
  6139 ;; This function uses a non-reentrant model
  6140 ;;
  6141                           
  6142                           	psect	text34
  6143  000AB2                     __ptext34:
  6144                           	callstack 0
  6145  000AB2                     _pad:
  6146                           	callstack 114
  6147                           
  6148                           ; BSR set to: 5
  6149                           ;/opt/microchip/xc8/v2.36/pic/sources/c99/common/doprnt.c: 72: static int pad(FILE *fp, 
      +                          char *buf, int p);/opt/microchip/xc8/v2.36/pic/sources/c99/common/doprnt.c: 73: {;/opt/m
      +                          icrochip/xc8/v2.36/pic/sources/c99/common/doprnt.c: 74:     int i, w;;/opt/microchip/xc8
      +                          /v2.36/pic/sources/c99/common/doprnt.c: 77:     if (flags & (1 << 0)) {
  6150                           
  6151                           ;incstack = 0
  6152  000AB2  A043               	btfss	_flags^(0+1280),0,c
  6153  000AB4  D00A               	goto	l2519
  6154                           
  6155                           ; BSR set to: 5
  6156                           ;/opt/microchip/xc8/v2.36/pic/sources/c99/common/doprnt.c: 78:         fputs((const char
      +                           *)buf, fp);
  6157  000AB6  C52C  F523         	movff	pad@buf,fputs@s
  6158  000ABA  C52D  F524         	movff	pad@buf+1,fputs@s+1
  6159  000ABE  C52A  F525         	movff	pad@fp,fputs@fp
  6160  000AC2  C52B  F526         	movff	pad@fp+1,fputs@fp+1
  6161  000AC6  ECB5  F008         	call	_fputs	;wreg free
  6162  000ACA                     l2519:
  6163                           
  6164                           ;/opt/microchip/xc8/v2.36/pic/sources/c99/common/doprnt.c: 82:     w = (p < 0) ? 0 : p;
  6165  000ACA  BE2F               	btfsc	(pad@p+1)^(0+1280),7,c
  6166  000ACC  D005               	goto	l2523
  6167  000ACE  C52E  F533         	movff	pad@p,pad@w
  6168  000AD2  C52F  F534         	movff	pad@p+1,pad@w+1
  6169  000AD6  D004               	goto	l1248
  6170  000AD8                     l2523:
  6171  000AD8  0E00               	movlw	0
  6172  000ADA  6E34               	movwf	(pad@w+1)^(0+1280),c
  6173  000ADC  0E00               	movlw	0
  6174  000ADE  6E33               	movwf	pad@w^(0+1280),c
  6175  000AE0                     l1248:
  6176                           
  6177                           ;/opt/microchip/xc8/v2.36/pic/sources/c99/common/doprnt.c: 83:     i = 0;
  6178  000AE0  0E00               	movlw	0
  6179  000AE2  6E32               	movwf	(pad@i+1)^(0+1280),c
  6180  000AE4  0E00               	movlw	0
  6181  000AE6  6E31               	movwf	pad@i^(0+1280),c
  6182                           
  6183                           ;/opt/microchip/xc8/v2.36/pic/sources/c99/common/doprnt.c: 84:     while (i < w) {
  6184  000AE8  D00C               	goto	l2529
  6185  000AEA                     l2525:
  6186                           
  6187                           ;/opt/microchip/xc8/v2.36/pic/sources/c99/common/doprnt.c: 85:         fputc(' ', fp);
  6188  000AEA  0E00               	movlw	0
  6189  000AEC  6E1B               	movwf	(fputc@c+1)^(0+1280),c
  6190  000AEE  0E20               	movlw	32
  6191  000AF0  6E1A               	movwf	fputc@c^(0+1280),c
  6192  000AF2  C52A  F51C         	movff	pad@fp,fputc@fp
  6193  000AF6  C52B  F51D         	movff	pad@fp+1,fputc@fp+1
  6194  000AFA  EC2B  F007         	call	_fputc	;wreg free
  6195                           
  6196                           ;/opt/microchip/xc8/v2.36/pic/sources/c99/common/doprnt.c: 86:         ++i;
  6197  000AFE  4A31               	infsnz	pad@i^(0+1280),f,c
  6198  000B00  2A32               	incf	(pad@i+1)^(0+1280),f,c
  6199  000B02                     l2529:
  6200                           
  6201                           ;/opt/microchip/xc8/v2.36/pic/sources/c99/common/doprnt.c: 84:     while (i < w) {
  6202  000B02  5033               	movf	pad@w^(0+1280),w,c
  6203  000B04  5C31               	subwf	pad@i^(0+1280),w,c
  6204  000B06  5032               	movf	(pad@i+1)^(0+1280),w,c
  6205  000B08  0A80               	xorlw	128
  6206  000B0A  6E30               	movwf	??_pad^(0+1280),c
  6207  000B0C  5034               	movf	(pad@w+1)^(0+1280),w,c
  6208  000B0E  0A80               	xorlw	128
  6209  000B10  5830               	subwfb	??_pad^(0+1280),w,c
  6210  000B12  A0D8               	btfss	status,0,c
  6211  000B14  D7EA               	goto	l2525
  6212                           
  6213                           ;/opt/microchip/xc8/v2.36/pic/sources/c99/common/doprnt.c: 90:     if (!(flags & (1 << 0
      +                          ))) {
  6214  000B16  B043               	btfsc	_flags^(0+1280),0,c
  6215  000B18  D00A               	goto	l2533
  6216                           
  6217                           ;/opt/microchip/xc8/v2.36/pic/sources/c99/common/doprnt.c: 91:         fputs((const char
      +                           *)buf, fp);
  6218  000B1A  C52C  F523         	movff	pad@buf,fputs@s
  6219  000B1E  C52D  F524         	movff	pad@buf+1,fputs@s+1
  6220  000B22  C52A  F525         	movff	pad@fp,fputs@fp
  6221  000B26  C52B  F526         	movff	pad@fp+1,fputs@fp+1
  6222  000B2A  ECB5  F008         	call	_fputs	;wreg free
  6223  000B2E                     l2533:
  6224                           
  6225                           ;/opt/microchip/xc8/v2.36/pic/sources/c99/common/doprnt.c: 94:     return (int)(strlen(b
      +                          uf) + (size_t)w);
  6226  000B2E  C52C  F519         	movff	pad@buf,strlen@s
  6227  000B32  C52D  F51A         	movff	pad@buf+1,strlen@s+1
  6228  000B36  EC83  F009         	call	_strlen	;wreg free
  6229  000B3A  5033               	movf	pad@w^(0+1280),w,c
  6230  000B3C  2419               	addwf	?_strlen^(0+1280),w,c
  6231  000B3E  6E2A               	movwf	?_pad^(0+1280),c
  6232  000B40  5034               	movf	(pad@w+1)^(0+1280),w,c
  6233  000B42  201A               	addwfc	(?_strlen+1)^(0+1280),w,c
  6234  000B44  6E2B               	movwf	(?_pad+1)^(0+1280),c
  6235  000B46  0012               	return		;funcret
  6236  000B48                     __end_of_pad:
  6237                           	callstack 0
  6238                           
  6239 ;; *************** function _strlen *****************
  6240 ;; Defined at:
  6241 ;;		line 5 in file "/opt/microchip/xc8/v2.36/pic/sources/c99/common/strlen.c"
  6242 ;; Parameters:    Size  Location     Type
  6243 ;;  s               2   24[COMRAM] PTR const unsigned char 
  6244 ;;		 -> dbuf(32), 
  6245 ;; Auto vars:     Size  Location     Type
  6246 ;;  a               2   26[COMRAM] PTR const unsigned char 
  6247 ;;		 -> dbuf(32), 
  6248 ;; Return value:  Size  Location     Type
  6249 ;;                  2   24[COMRAM] unsigned int 
  6250 ;; Registers used:
  6251 ;;		wreg, fsr2l, fsr2h, status,2, status,0
  6252 ;; Tracked objects:
  6253 ;;		On entry : 0/5
  6254 ;;		On exit  : 0/0
  6255 ;;		Unchanged: 0/0
  6256 ;; Data sizes:     COMRAM   BANK5   BANK6   BANK7   BANK8
  6257 ;;      Params:         2       0       0       0       0
  6258 ;;      Locals:         2       0       0       0       0
  6259 ;;      Temps:          0       0       0       0       0
  6260 ;;      Totals:         4       0       0       0       0
  6261 ;;Total ram usage:        4 bytes
  6262 ;; Hardware stack levels used: 1
  6263 ;; Hardware stack levels required when called: 4
  6264 ;; This function calls:
  6265 ;;		Nothing
  6266 ;; This function is called by:
  6267 ;;		_pad
  6268 ;; This function uses a non-reentrant model
  6269 ;;
  6270                           
  6271                           	psect	text35
  6272  001306                     __ptext35:
  6273                           	callstack 0
  6274  001306                     _strlen:
  6275                           	callstack 116
  6276                           
  6277                           ;incstack = 0
  6278  001306  C519  F51B         	movff	strlen@s,strlen@a
  6279  00130A  C51A  F51C         	movff	strlen@s+1,strlen@a+1
  6280  00130E  D002               	goto	l2471
  6281  001310                     l2469:
  6282  001310  4A19               	infsnz	strlen@s^(0+1280),f,c
  6283  001312  2A1A               	incf	(strlen@s+1)^(0+1280),f,c
  6284  001314                     l2471:
  6285  001314  0061  F464  F4D9   	movff	strlen@s,fsr2l
  6286  00131A  0061  F468  F4DA   	movff	strlen@s+1,fsr2h
  6287  001320  50DF               	movf	indf2,w,c
  6288  001322  A4D8               	btfss	status,2,c
  6289  001324  D7F5               	goto	l2469
  6290  001326  501B               	movf	strlen@a^(0+1280),w,c
  6291  001328  5C19               	subwf	strlen@s^(0+1280),w,c
  6292  00132A  6E19               	movwf	?_strlen^(0+1280),c
  6293  00132C  501C               	movf	(strlen@a+1)^(0+1280),w,c
  6294  00132E  581A               	subwfb	(strlen@s+1)^(0+1280),w,c
  6295  001330  6E1A               	movwf	(?_strlen+1)^(0+1280),c
  6296  001332  0012               	return		;funcret
  6297  001334                     __end_of_strlen:
  6298                           	callstack 0
  6299                           
  6300 ;; *************** function _fputs *****************
  6301 ;; Defined at:
  6302 ;;		line 8 in file "/opt/microchip/xc8/v2.36/pic/sources/c99/common/nf_fputs.c"
  6303 ;; Parameters:    Size  Location     Type
  6304 ;;  s               2   34[COMRAM] PTR const unsigned char 
  6305 ;;		 -> dbuf(32), 
  6306 ;;  fp              2   36[COMRAM] PTR struct _IO_FILE
  6307 ;;		 -> NULL(0), 
  6308 ;; Auto vars:     Size  Location     Type
  6309 ;;  i               2   39[COMRAM] int 
  6310 ;;  c               1   38[COMRAM] unsigned char 
  6311 ;; Return value:  Size  Location     Type
  6312 ;;                  2   34[COMRAM] int 
  6313 ;; Registers used:
  6314 ;;		wreg, fsr1l, fsr1h, fsr2l, fsr2h, status,2, status,0, cstack
  6315 ;; Tracked objects:
  6316 ;;		On entry : 0/5
  6317 ;;		On exit  : 0/0
  6318 ;;		Unchanged: 0/0
  6319 ;; Data sizes:     COMRAM   BANK5   BANK6   BANK7   BANK8
  6320 ;;      Params:         4       0       0       0       0
  6321 ;;      Locals:         3       0       0       0       0
  6322 ;;      Temps:          0       0       0       0       0
  6323 ;;      Totals:         7       0       0       0       0
  6324 ;;Total ram usage:        7 bytes
  6325 ;; Hardware stack levels used: 1
  6326 ;; Hardware stack levels required when called: 6
  6327 ;; This function calls:
  6328 ;;		_fputc
  6329 ;; This function is called by:
  6330 ;;		_pad
  6331 ;; This function uses a non-reentrant model
  6332 ;;
  6333                           
  6334                           	psect	text36
  6335  00116A                     __ptext36:
  6336                           	callstack 0
  6337  00116A                     _fputs:
  6338                           	callstack 114
  6339                           
  6340                           ;incstack = 0
  6341  00116A  0E00               	movlw	0
  6342  00116C  6E29               	movwf	(fputs@i+1)^(0+1280),c
  6343  00116E  0E00               	movlw	0
  6344  001170  6E28               	movwf	fputs@i^(0+1280),c
  6345  001172  D00B               	goto	l2465
  6346  001174                     l2461:
  6347  001174  C527  F51A         	movff	fputs@c,fputc@c
  6348  001178  6A1B               	clrf	(fputc@c+1)^(0+1280),c
  6349  00117A  C525  F51C         	movff	fputs@fp,fputc@fp
  6350  00117E  C526  F51D         	movff	fputs@fp+1,fputc@fp+1
  6351  001182  EC2B  F007         	call	_fputc	;wreg free
  6352  001186  4A28               	infsnz	fputs@i^(0+1280),f,c
  6353  001188  2A29               	incf	(fputs@i+1)^(0+1280),f,c
  6354  00118A                     l2465:
  6355  00118A  5028               	movf	fputs@i^(0+1280),w,c
  6356  00118C  2423               	addwf	fputs@s^(0+1280),w,c
  6357  00118E  6ED9               	movwf	fsr2l,c
  6358  001190  5029               	movf	(fputs@i+1)^(0+1280),w,c
  6359  001192  2024               	addwfc	(fputs@s+1)^(0+1280),w,c
  6360  001194  6EDA               	movwf	fsr2h,c
  6361  001196  50DF               	movf	indf2,w,c
  6362  001198  6E27               	movwf	fputs@c^(0+1280),c
  6363  00119A  5027               	movf	fputs@c^(0+1280),w,c
  6364  00119C  B4D8               	btfsc	status,2,c
  6365  00119E  0012               	return	
  6366  0011A0  D7E9               	goto	l2461
  6367  0011A2                     __end_of_fputs:
  6368                           	callstack 0
  6369                           
  6370 ;; *************** function _fputc *****************
  6371 ;; Defined at:
  6372 ;;		line 8 in file "/opt/microchip/xc8/v2.36/pic/sources/c99/common/nf_fputc.c"
  6373 ;; Parameters:    Size  Location     Type
  6374 ;;  c               2   25[COMRAM] int 
  6375 ;;  fp              2   27[COMRAM] PTR struct _IO_FILE
  6376 ;;		 -> NULL(0), 
  6377 ;; Auto vars:     Size  Location     Type
  6378 ;;		None
  6379 ;; Return value:  Size  Location     Type
  6380 ;;                  2   25[COMRAM] int 
  6381 ;; Registers used:
  6382 ;;		wreg, fsr1l, fsr1h, fsr2l, fsr2h, status,2, status,0, cstack
  6383 ;; Tracked objects:
  6384 ;;		On entry : 0/5
  6385 ;;		On exit  : 0/0
  6386 ;;		Unchanged: 0/0
  6387 ;; Data sizes:     COMRAM   BANK5   BANK6   BANK7   BANK8
  6388 ;;      Params:         4       0       0       0       0
  6389 ;;      Locals:         0       0       0       0       0
  6390 ;;      Temps:          5       0       0       0       0
  6391 ;;      Totals:         9       0       0       0       0
  6392 ;;Total ram usage:        9 bytes
  6393 ;; Hardware stack levels used: 1
  6394 ;; Hardware stack levels required when called: 5
  6395 ;; This function calls:
  6396 ;;		_putch
  6397 ;; This function is called by:
  6398 ;;		_pad
  6399 ;;		_vfpfcnvrt
  6400 ;;		_fputs
  6401 ;; This function uses a non-reentrant model
  6402 ;;
  6403                           
  6404                           	psect	text37
  6405  000E56                     __ptext37:
  6406                           	callstack 0
  6407  000E56                     _fputc:
  6408                           	callstack 114
  6409                           
  6410                           ;incstack = 0
  6411  000E56  501C               	movf	fputc@fp^(0+1280),w,c
  6412  000E58  101D               	iorwf	(fputc@fp+1)^(0+1280),w,c
  6413  000E5A  B4D8               	btfsc	status,2,c
  6414  000E5C  D004               	goto	u930
  6415  000E5E  501C               	movf	fputc@fp^(0+1280),w,c
  6416  000E60  101D               	iorwf	(fputc@fp+1)^(0+1280),w,c
  6417  000E62  A4D8               	btfss	status,2,c
  6418  000E64  D004               	goto	l2451
  6419  000E66                     u930:
  6420  000E66  501A               	movf	fputc@c^(0+1280),w,c
  6421  000E68  EC36  F00A         	call	_putch
  6422  000E6C  0012               	return	
  6423  000E6E                     l2451:
  6424  000E6E  EE20 F009          	lfsr	2,9
  6425  000E72  501C               	movf	fputc@fp^(0+1280),w,c
  6426  000E74  26D9               	addwf	fsr2l,f,c
  6427  000E76  501D               	movf	(fputc@fp+1)^(0+1280),w,c
  6428  000E78  22DA               	addwfc	fsr2h,f,c
  6429  000E7A  50DE               	movf	postinc2,w,c
  6430  000E7C  10DE               	iorwf	postinc2,w,c
  6431  000E7E  B4D8               	btfsc	status,2,c
  6432  000E80  D016               	goto	u950
  6433  000E82  EE20 F009          	lfsr	2,9
  6434  000E86  501C               	movf	fputc@fp^(0+1280),w,c
  6435  000E88  26D9               	addwf	fsr2l,f,c
  6436  000E8A  501D               	movf	(fputc@fp+1)^(0+1280),w,c
  6437  000E8C  22DA               	addwfc	fsr2h,f,c
  6438  000E8E  EE10 F003          	lfsr	1,3
  6439  000E92  501C               	movf	fputc@fp^(0+1280),w,c
  6440  000E94  26E1               	addwf	fsr1l,f,c
  6441  000E96  501D               	movf	(fputc@fp+1)^(0+1280),w,c
  6442  000E98  22E2               	addwfc	fsr1h,f,c
  6443  000E9A  50DE               	movf	postinc2,w,c
  6444  000E9C  5CE6               	subwf	postinc1,w,c
  6445  000E9E  50E6               	movf	postinc1,w,c
  6446  000EA0  0A80               	xorlw	128
  6447  000EA2  6E22               	movwf	(??_fputc+4)^(0+1280),c
  6448  000EA4  50DE               	movf	postinc2,w,c
  6449  000EA6  0A80               	xorlw	128
  6450  000EA8  5822               	subwfb	(??_fputc+4)^(0+1280),w,c
  6451  000EAA  B0D8               	btfsc	status,0,c
  6452  000EAC  0012               	return	
  6453  000EAE                     u950:
  6454  000EAE  EE20 F003          	lfsr	2,3
  6455  000EB2  501C               	movf	fputc@fp^(0+1280),w,c
  6456  000EB4  26D9               	addwf	fsr2l,f,c
  6457  000EB6  501D               	movf	(fputc@fp+1)^(0+1280),w,c
  6458  000EB8  22DA               	addwfc	fsr2h,f,c
  6459  000EBA  2ADE               	incf	postinc2,f,c
  6460  000EBC  0E00               	movlw	0
  6461  000EBE  22DD               	addwfc	postdec2,f,c
  6462  000EC0  0012               	return		;funcret
  6463  000EC2                     __end_of_fputc:
  6464                           	callstack 0
  6465                           
  6466 ;; *************** function _putch *****************
  6467 ;; Defined at:
  6468 ;;		line 94 in file "uart1.c"
  6469 ;; Parameters:    Size  Location     Type
  6470 ;;  b               1    wreg     unsigned char 
  6471 ;; Auto vars:     Size  Location     Type
  6472 ;;  b               1   24[COMRAM] unsigned char 
  6473 ;; Return value:  Size  Location     Type
  6474 ;;                  1    wreg      void 
  6475 ;; Registers used:
  6476 ;;		wreg
  6477 ;; Tracked objects:
  6478 ;;		On entry : 0/5
  6479 ;;		On exit  : 3F/2
  6480 ;;		Unchanged: 0/0
  6481 ;; Data sizes:     COMRAM   BANK5   BANK6   BANK7   BANK8
  6482 ;;      Params:         0       0       0       0       0
  6483 ;;      Locals:         1       0       0       0       0
  6484 ;;      Temps:          0       0       0       0       0
  6485 ;;      Totals:         1       0       0       0       0
  6486 ;;Total ram usage:        1 bytes
  6487 ;; Hardware stack levels used: 1
  6488 ;; Hardware stack levels required when called: 4
  6489 ;; This function calls:
  6490 ;;		Nothing
  6491 ;; This function is called by:
  6492 ;;		_main
  6493 ;;		_uart1_init
  6494 ;;		_getch
  6495 ;;		_fputc
  6496 ;; This function uses a non-reentrant model
  6497 ;;
  6498                           
  6499                           	psect	text38
  6500  00146C                     __ptext38:
  6501                           	callstack 0
  6502  00146C                     _putch:
  6503                           	callstack 121
  6504                           
  6505                           ;incstack = 0
  6506                           ;putch@b stored from wreg
  6507  00146C  6E19               	movwf	putch@b^(0+1280),c
  6508  00146E                     
  6509                           ;uart1.c: 94: void putch( uint8_t b );uart1.c: 95: {;uart1.c: 96:  while( U1FIFObits.TXB
      +                          F );
  6510  00146E  0102               	movlb	2	; () banked
  6511  001470  B9B0               	btfsc	176,4,b	;volatile
  6512  001472  D7FD               	goto	l2441
  6513                           
  6514                           ; BSR set to: 2
  6515                           ;uart1.c: 97:  U1TXB = b;
  6516  001474  0061  F464  F2A3   	movff	putch@b,675	;volatile
  6517                           
  6518                           ; BSR set to: 2
  6519  00147A  0012               	return		;funcret
  6520  00147C                     __end_of_putch:
  6521                           	callstack 0
  6522                           
  6523 ;; *************** function ___lomod *****************
  6524 ;; Defined at:
  6525 ;;		line 9 in file "/opt/microchip/xc8/v2.36/pic/sources/c99/common/lomod.c"
  6526 ;; Parameters:    Size  Location     Type
  6527 ;;  dividend        8   24[COMRAM] unsigned long long 
  6528 ;;  divisor         8   32[COMRAM] unsigned long long 
  6529 ;; Auto vars:     Size  Location     Type
  6530 ;;  counter         1   40[COMRAM] unsigned char 
  6531 ;; Return value:  Size  Location     Type
  6532 ;;                  8   24[COMRAM] unsigned long long 
  6533 ;; Registers used:
  6534 ;;		wreg, status,2, status,0
  6535 ;; Tracked objects:
  6536 ;;		On entry : 3F/5
  6537 ;;		On exit  : 3F/5
  6538 ;;		Unchanged: 3E/0
  6539 ;; Data sizes:     COMRAM   BANK5   BANK6   BANK7   BANK8
  6540 ;;      Params:        16       0       0       0       0
  6541 ;;      Locals:         1       0       0       0       0
  6542 ;;      Temps:          0       0       0       0       0
  6543 ;;      Totals:        17       0       0       0       0
  6544 ;;Total ram usage:       17 bytes
  6545 ;; Hardware stack levels used: 1
  6546 ;; Hardware stack levels required when called: 4
  6547 ;; This function calls:
  6548 ;;		Nothing
  6549 ;; This function is called by:
  6550 ;;		_utoa
  6551 ;; This function uses a non-reentrant model
  6552 ;;
  6553                           
  6554                           	psect	text39
  6555  0008B8                     __ptext39:
  6556                           	callstack 0
  6557  0008B8                     ___lomod:
  6558                           	callstack 117
  6559                           
  6560                           ; BSR set to: 5
  6561                           
  6562                           ; BSR set to: 2
  6563                           ;incstack = 0
  6564  0008B8  5021               	movf	___lomod@divisor^(0+1280),w,c
  6565  0008BA  1022               	iorwf	(___lomod@divisor+1)^(0+1280),w,c
  6566  0008BC  1023               	iorwf	(___lomod@divisor+2)^(0+1280),w,c
  6567  0008BE  1024               	iorwf	(___lomod@divisor+3)^(0+1280),w,c
  6568  0008C0  1025               	iorwf	(___lomod@divisor+4)^(0+1280),w,c
  6569  0008C2  1026               	iorwf	(___lomod@divisor+5)^(0+1280),w,c
  6570  0008C4  1027               	iorwf	(___lomod@divisor+6)^(0+1280),w,c
  6571  0008C6  1028               	iorwf	(___lomod@divisor+7)^(0+1280),w,c
  6572  0008C8  B4D8               	btfsc	status,2,c
  6573  0008CA  D03C               	goto	l993
  6574                           
  6575                           ; BSR set to: 5
  6576  0008CC  0E01               	movlw	1
  6577  0008CE  6E29               	movwf	___lomod@counter^(0+1280),c
  6578  0008D0  D00A               	goto	l2505
  6579  0008D2                     l2503:
  6580                           
  6581                           ; BSR set to: 5
  6582  0008D2  90D8               	bcf	status,0,c
  6583  0008D4  3621               	rlcf	___lomod@divisor^(0+1280),f,c
  6584  0008D6  3622               	rlcf	(___lomod@divisor+1)^(0+1280),f,c
  6585  0008D8  3623               	rlcf	(___lomod@divisor+2)^(0+1280),f,c
  6586  0008DA  3624               	rlcf	(___lomod@divisor+3)^(0+1280),f,c
  6587  0008DC  3625               	rlcf	(___lomod@divisor+4)^(0+1280),f,c
  6588  0008DE  3626               	rlcf	(___lomod@divisor+5)^(0+1280),f,c
  6589  0008E0  3627               	rlcf	(___lomod@divisor+6)^(0+1280),f,c
  6590  0008E2  3628               	rlcf	(___lomod@divisor+7)^(0+1280),f,c
  6591  0008E4  2A29               	incf	___lomod@counter^(0+1280),f,c
  6592  0008E6                     l2505:
  6593                           
  6594                           ; BSR set to: 5
  6595  0008E6  AE28               	btfss	(___lomod@divisor+7)^(0+1280),7,c
  6596  0008E8  D7F4               	goto	l2503
  6597  0008EA                     u1030:
  6598                           
  6599                           ; BSR set to: 5
  6600  0008EA  5021               	movf	___lomod@divisor^(0+1280),w,c
  6601  0008EC  5C19               	subwf	___lomod@dividend^(0+1280),w,c
  6602  0008EE  5022               	movf	(___lomod@divisor+1)^(0+1280),w,c
  6603  0008F0  581A               	subwfb	(___lomod@dividend+1)^(0+1280),w,c
  6604  0008F2  5023               	movf	(___lomod@divisor+2)^(0+1280),w,c
  6605  0008F4  581B               	subwfb	(___lomod@dividend+2)^(0+1280),w,c
  6606  0008F6  5024               	movf	(___lomod@divisor+3)^(0+1280),w,c
  6607  0008F8  581C               	subwfb	(___lomod@dividend+3)^(0+1280),w,c
  6608  0008FA  5025               	movf	(___lomod@divisor+4)^(0+1280),w,c
  6609  0008FC  581D               	subwfb	(___lomod@dividend+4)^(0+1280),w,c
  6610  0008FE  5026               	movf	(___lomod@divisor+5)^(0+1280),w,c
  6611  000900  581E               	subwfb	(___lomod@dividend+5)^(0+1280),w,c
  6612  000902  5027               	movf	(___lomod@divisor+6)^(0+1280),w,c
  6613  000904  581F               	subwfb	(___lomod@dividend+6)^(0+1280),w,c
  6614  000906  5028               	movf	(___lomod@divisor+7)^(0+1280),w,c
  6615  000908  5820               	subwfb	(___lomod@dividend+7)^(0+1280),w,c
  6616  00090A  A0D8               	btfss	status,0,c
  6617  00090C  D010               	goto	l2511
  6618                           
  6619                           ; BSR set to: 5
  6620  00090E  5021               	movf	___lomod@divisor^(0+1280),w,c
  6621  000910  5E19               	subwf	___lomod@dividend^(0+1280),f,c
  6622  000912  5022               	movf	(___lomod@divisor+1)^(0+1280),w,c
  6623  000914  5A1A               	subwfb	(___lomod@dividend+1)^(0+1280),f,c
  6624  000916  5023               	movf	(___lomod@divisor+2)^(0+1280),w,c
  6625  000918  5A1B               	subwfb	(___lomod@dividend+2)^(0+1280),f,c
  6626  00091A  5024               	movf	(___lomod@divisor+3)^(0+1280),w,c
  6627  00091C  5A1C               	subwfb	(___lomod@dividend+3)^(0+1280),f,c
  6628  00091E  5025               	movf	(___lomod@divisor+4)^(0+1280),w,c
  6629  000920  5A1D               	subwfb	(___lomod@dividend+4)^(0+1280),f,c
  6630  000922  5026               	movf	(___lomod@divisor+5)^(0+1280),w,c
  6631  000924  5A1E               	subwfb	(___lomod@dividend+5)^(0+1280),f,c
  6632  000926  5027               	movf	(___lomod@divisor+6)^(0+1280),w,c
  6633  000928  5A1F               	subwfb	(___lomod@dividend+6)^(0+1280),f,c
  6634  00092A  5028               	movf	(___lomod@divisor+7)^(0+1280),w,c
  6635  00092C  5A20               	subwfb	(___lomod@dividend+7)^(0+1280),f,c
  6636  00092E                     l2511:
  6637                           
  6638                           ; BSR set to: 5
  6639  00092E  90D8               	bcf	status,0,c
  6640  000930  3228               	rrcf	(___lomod@divisor+7)^(0+1280),f,c
  6641  000932  3227               	rrcf	(___lomod@divisor+6)^(0+1280),f,c
  6642  000934  3226               	rrcf	(___lomod@divisor+5)^(0+1280),f,c
  6643  000936  3225               	rrcf	(___lomod@divisor+4)^(0+1280),f,c
  6644  000938  3224               	rrcf	(___lomod@divisor+3)^(0+1280),f,c
  6645  00093A  3223               	rrcf	(___lomod@divisor+2)^(0+1280),f,c
  6646  00093C  3222               	rrcf	(___lomod@divisor+1)^(0+1280),f,c
  6647  00093E  3221               	rrcf	___lomod@divisor^(0+1280),f,c
  6648                           
  6649                           ; BSR set to: 5
  6650  000940  2E29               	decfsz	___lomod@counter^(0+1280),f,c
  6651  000942  D7D3               	goto	u1030
  6652  000944                     l993:
  6653                           
  6654                           ; BSR set to: 5
  6655  000944  C519  F519         	movff	___lomod@dividend,?___lomod
  6656  000948  C51A  F51A         	movff	___lomod@dividend+1,?___lomod+1
  6657  00094C  C51B  F51B         	movff	___lomod@dividend+2,?___lomod+2
  6658  000950  C51C  F51C         	movff	___lomod@dividend+3,?___lomod+3
  6659  000954  C51D  F51D         	movff	___lomod@dividend+4,?___lomod+4
  6660  000958  C51E  F51E         	movff	___lomod@dividend+5,?___lomod+5
  6661  00095C  C51F  F51F         	movff	___lomod@dividend+6,?___lomod+6
  6662  000960  C520  F520         	movff	___lomod@dividend+7,?___lomod+7
  6663                           
  6664                           ; BSR set to: 5
  6665  000964  0012               	return		;funcret
  6666  000966                     __end_of___lomod:
  6667                           	callstack 0
  6668                           
  6669 ;; *************** function ___lodiv *****************
  6670 ;; Defined at:
  6671 ;;		line 9 in file "/opt/microchip/xc8/v2.36/pic/sources/c99/common/lodiv.c"
  6672 ;; Parameters:    Size  Location     Type
  6673 ;;  dividend        8   24[COMRAM] unsigned long long 
  6674 ;;  divisor         8   32[COMRAM] unsigned long long 
  6675 ;; Auto vars:     Size  Location     Type
  6676 ;;  quotient        8   40[COMRAM] unsigned long long 
  6677 ;;  counter         1   48[COMRAM] unsigned char 
  6678 ;; Return value:  Size  Location     Type
  6679 ;;                  8   24[COMRAM] unsigned long long 
  6680 ;; Registers used:
  6681 ;;		wreg, fsr2l, fsr2h, status,2, status,0
  6682 ;; Tracked objects:
  6683 ;;		On entry : 3F/5
  6684 ;;		On exit  : 3F/5
  6685 ;;		Unchanged: 3E/0
  6686 ;; Data sizes:     COMRAM   BANK5   BANK6   BANK7   BANK8
  6687 ;;      Params:        16       0       0       0       0
  6688 ;;      Locals:         9       0       0       0       0
  6689 ;;      Temps:          0       0       0       0       0
  6690 ;;      Totals:        25       0       0       0       0
  6691 ;;Total ram usage:       25 bytes
  6692 ;; Hardware stack levels used: 1
  6693 ;; Hardware stack levels required when called: 4
  6694 ;; This function calls:
  6695 ;;		Nothing
  6696 ;; This function is called by:
  6697 ;;		_utoa
  6698 ;; This function uses a non-reentrant model
  6699 ;;
  6700                           
  6701                           	psect	text40
  6702  000668                     __ptext40:
  6703                           	callstack 0
  6704  000668                     ___lodiv:
  6705                           	callstack 117
  6706                           
  6707                           ; BSR set to: 5
  6708                           
  6709                           ; BSR set to: 5
  6710                           ;incstack = 0
  6711  000668  EE21  F129         	lfsr	2,___lodiv@quotient
  6712  00066C  0E07               	movlw	7
  6713  00066E                     u981:
  6714  00066E  6ADE               	clrf	postinc2,c
  6715  000670  06E8               	decf	wreg,f,c
  6716  000672  E2FD               	bc	u981
  6717                           
  6718                           ; BSR set to: 5
  6719  000674  5021               	movf	___lodiv@divisor^(0+1280),w,c
  6720  000676  1022               	iorwf	(___lodiv@divisor+1)^(0+1280),w,c
  6721  000678  1023               	iorwf	(___lodiv@divisor+2)^(0+1280),w,c
  6722  00067A  1024               	iorwf	(___lodiv@divisor+3)^(0+1280),w,c
  6723  00067C  1025               	iorwf	(___lodiv@divisor+4)^(0+1280),w,c
  6724  00067E  1026               	iorwf	(___lodiv@divisor+5)^(0+1280),w,c
  6725  000680  1027               	iorwf	(___lodiv@divisor+6)^(0+1280),w,c
  6726  000682  1028               	iorwf	(___lodiv@divisor+7)^(0+1280),w,c
  6727  000684  B4D8               	btfsc	status,2,c
  6728  000686  D046               	goto	l983
  6729                           
  6730                           ; BSR set to: 5
  6731  000688  0E01               	movlw	1
  6732  00068A  6E31               	movwf	___lodiv@counter^(0+1280),c
  6733  00068C  D00A               	goto	l2485
  6734  00068E                     l2483:
  6735                           
  6736                           ; BSR set to: 5
  6737  00068E  90D8               	bcf	status,0,c
  6738  000690  3621               	rlcf	___lodiv@divisor^(0+1280),f,c
  6739  000692  3622               	rlcf	(___lodiv@divisor+1)^(0+1280),f,c
  6740  000694  3623               	rlcf	(___lodiv@divisor+2)^(0+1280),f,c
  6741  000696  3624               	rlcf	(___lodiv@divisor+3)^(0+1280),f,c
  6742  000698  3625               	rlcf	(___lodiv@divisor+4)^(0+1280),f,c
  6743  00069A  3626               	rlcf	(___lodiv@divisor+5)^(0+1280),f,c
  6744  00069C  3627               	rlcf	(___lodiv@divisor+6)^(0+1280),f,c
  6745  00069E  3628               	rlcf	(___lodiv@divisor+7)^(0+1280),f,c
  6746  0006A0  2A31               	incf	___lodiv@counter^(0+1280),f,c
  6747  0006A2                     l2485:
  6748                           
  6749                           ; BSR set to: 5
  6750  0006A2  AE28               	btfss	(___lodiv@divisor+7)^(0+1280),7,c
  6751  0006A4  D7F4               	goto	l2483
  6752  0006A6                     u1000:
  6753                           
  6754                           ; BSR set to: 5
  6755  0006A6  90D8               	bcf	status,0,c
  6756  0006A8  3629               	rlcf	___lodiv@quotient^(0+1280),f,c
  6757  0006AA  362A               	rlcf	(___lodiv@quotient+1)^(0+1280),f,c
  6758  0006AC  362B               	rlcf	(___lodiv@quotient+2)^(0+1280),f,c
  6759  0006AE  362C               	rlcf	(___lodiv@quotient+3)^(0+1280),f,c
  6760  0006B0  362D               	rlcf	(___lodiv@quotient+4)^(0+1280),f,c
  6761  0006B2  362E               	rlcf	(___lodiv@quotient+5)^(0+1280),f,c
  6762  0006B4  362F               	rlcf	(___lodiv@quotient+6)^(0+1280),f,c
  6763  0006B6  3630               	rlcf	(___lodiv@quotient+7)^(0+1280),f,c
  6764                           
  6765                           ; BSR set to: 5
  6766  0006B8  5021               	movf	___lodiv@divisor^(0+1280),w,c
  6767  0006BA  5C19               	subwf	___lodiv@dividend^(0+1280),w,c
  6768  0006BC  5022               	movf	(___lodiv@divisor+1)^(0+1280),w,c
  6769  0006BE  581A               	subwfb	(___lodiv@dividend+1)^(0+1280),w,c
  6770  0006C0  5023               	movf	(___lodiv@divisor+2)^(0+1280),w,c
  6771  0006C2  581B               	subwfb	(___lodiv@dividend+2)^(0+1280),w,c
  6772  0006C4  5024               	movf	(___lodiv@divisor+3)^(0+1280),w,c
  6773  0006C6  581C               	subwfb	(___lodiv@dividend+3)^(0+1280),w,c
  6774  0006C8  5025               	movf	(___lodiv@divisor+4)^(0+1280),w,c
  6775  0006CA  581D               	subwfb	(___lodiv@dividend+4)^(0+1280),w,c
  6776  0006CC  5026               	movf	(___lodiv@divisor+5)^(0+1280),w,c
  6777  0006CE  581E               	subwfb	(___lodiv@dividend+5)^(0+1280),w,c
  6778  0006D0  5027               	movf	(___lodiv@divisor+6)^(0+1280),w,c
  6779  0006D2  581F               	subwfb	(___lodiv@dividend+6)^(0+1280),w,c
  6780  0006D4  5028               	movf	(___lodiv@divisor+7)^(0+1280),w,c
  6781  0006D6  5820               	subwfb	(___lodiv@dividend+7)^(0+1280),w,c
  6782  0006D8  A0D8               	btfss	status,0,c
  6783  0006DA  D011               	goto	l2495
  6784                           
  6785                           ; BSR set to: 5
  6786  0006DC  5021               	movf	___lodiv@divisor^(0+1280),w,c
  6787  0006DE  5E19               	subwf	___lodiv@dividend^(0+1280),f,c
  6788  0006E0  5022               	movf	(___lodiv@divisor+1)^(0+1280),w,c
  6789  0006E2  5A1A               	subwfb	(___lodiv@dividend+1)^(0+1280),f,c
  6790  0006E4  5023               	movf	(___lodiv@divisor+2)^(0+1280),w,c
  6791  0006E6  5A1B               	subwfb	(___lodiv@dividend+2)^(0+1280),f,c
  6792  0006E8  5024               	movf	(___lodiv@divisor+3)^(0+1280),w,c
  6793  0006EA  5A1C               	subwfb	(___lodiv@dividend+3)^(0+1280),f,c
  6794  0006EC  5025               	movf	(___lodiv@divisor+4)^(0+1280),w,c
  6795  0006EE  5A1D               	subwfb	(___lodiv@dividend+4)^(0+1280),f,c
  6796  0006F0  5026               	movf	(___lodiv@divisor+5)^(0+1280),w,c
  6797  0006F2  5A1E               	subwfb	(___lodiv@dividend+5)^(0+1280),f,c
  6798  0006F4  5027               	movf	(___lodiv@divisor+6)^(0+1280),w,c
  6799  0006F6  5A1F               	subwfb	(___lodiv@dividend+6)^(0+1280),f,c
  6800  0006F8  5028               	movf	(___lodiv@divisor+7)^(0+1280),w,c
  6801  0006FA  5A20               	subwfb	(___lodiv@dividend+7)^(0+1280),f,c
  6802                           
  6803                           ; BSR set to: 5
  6804  0006FC  8029               	bsf	___lodiv@quotient^(0+1280),0,c
  6805  0006FE                     l2495:
  6806                           
  6807                           ; BSR set to: 5
  6808  0006FE  90D8               	bcf	status,0,c
  6809  000700  3228               	rrcf	(___lodiv@divisor+7)^(0+1280),f,c
  6810  000702  3227               	rrcf	(___lodiv@divisor+6)^(0+1280),f,c
  6811  000704  3226               	rrcf	(___lodiv@divisor+5)^(0+1280),f,c
  6812  000706  3225               	rrcf	(___lodiv@divisor+4)^(0+1280),f,c
  6813  000708  3224               	rrcf	(___lodiv@divisor+3)^(0+1280),f,c
  6814  00070A  3223               	rrcf	(___lodiv@divisor+2)^(0+1280),f,c
  6815  00070C  3222               	rrcf	(___lodiv@divisor+1)^(0+1280),f,c
  6816  00070E  3221               	rrcf	___lodiv@divisor^(0+1280),f,c
  6817                           
  6818                           ; BSR set to: 5
  6819  000710  2E31               	decfsz	___lodiv@counter^(0+1280),f,c
  6820  000712  D7C9               	goto	u1000
  6821  000714                     l983:
  6822                           
  6823                           ; BSR set to: 5
  6824  000714  C529  F519         	movff	___lodiv@quotient,?___lodiv
  6825  000718  C52A  F51A         	movff	___lodiv@quotient+1,?___lodiv+1
  6826  00071C  C52B  F51B         	movff	___lodiv@quotient+2,?___lodiv+2
  6827  000720  C52C  F51C         	movff	___lodiv@quotient+3,?___lodiv+3
  6828  000724  C52D  F51D         	movff	___lodiv@quotient+4,?___lodiv+4
  6829  000728  C52E  F51E         	movff	___lodiv@quotient+5,?___lodiv+5
  6830  00072C  C52F  F51F         	movff	___lodiv@quotient+6,?___lodiv+6
  6831  000730  C530  F520         	movff	___lodiv@quotient+7,?___lodiv+7
  6832                           
  6833                           ; BSR set to: 5
  6834  000734  0012               	return		;funcret
  6835  000736                     __end_of___lodiv:
  6836                           	callstack 0
  6837                           
  6838 ;; *************** function _UART1_framing_err_vect_isr *****************
  6839 ;; Defined at:
  6840 ;;		line 137 in file "uart1.c"
  6841 ;; Parameters:    Size  Location     Type
  6842 ;;		None
  6843 ;; Auto vars:     Size  Location     Type
  6844 ;;		None
  6845 ;; Return value:  Size  Location     Type
  6846 ;;                  1    wreg      void 
  6847 ;; Registers used:
  6848 ;;		wreg, status,2
  6849 ;; Tracked objects:
  6850 ;;		On entry : 0/0
  6851 ;;		On exit  : 3F/2
  6852 ;;		Unchanged: 0/0
  6853 ;; Data sizes:     COMRAM   BANK5   BANK6   BANK7   BANK8
  6854 ;;      Params:         0       0       0       0       0
  6855 ;;      Locals:         0       0       0       0       0
  6856 ;;      Temps:          1       0       0       0       0
  6857 ;;      Totals:         1       0       0       0       0
  6858 ;;Total ram usage:        1 bytes
  6859 ;; Hardware stack levels used: 1
  6860 ;; Hardware stack levels required when called: 3
  6861 ;; This function calls:
  6862 ;;		Nothing
  6863 ;; This function is called by:
  6864 ;;		Interrupt level 1
  6865 ;; This function uses a non-reentrant model
  6866 ;;
  6867                           
  6868                           	psect	text41
  6869  00142C                     __ptext41:
  6870                           	callstack 0
  6871  00142C                     _UART1_framing_err_vect_isr:
  6872                           	callstack 110
  6873                           
  6874                           ; BSR set to: 5
  6875                           ;incstack = 0
  6876  00142C  0061 F360  F518    	movff	status,??_UART1_framing_err_vect_isr
  6877                           
  6878                           ;uart1.c: 139:     U1ERRIR = 0;
  6879  001432  0E00               	movlw	0
  6880  001434  0102               	movlb	2	; () banked
  6881  001436  6FB2               	movwf	178,b	;volatile
  6882                           
  6883                           ; BSR set to: 2
  6884                           ;uart1.c: 140:  U1CON1bits.ON = 0;
  6885  001438  9FAC               	bcf	172,7,b	;volatile
  6886                           
  6887                           ; BSR set to: 2
  6888                           ;uart1.c: 141:  U1CON1bits.ON = 1;
  6889  00143A  8FAC               	bsf	172,7,b	;volatile
  6890                           
  6891                           ; BSR set to: 2
  6892  00143C  0061  F460  F4D8   	movff	??_UART1_framing_err_vect_isr,status
  6893  001442  0011               	retfie		f
  6894  001444                     __end_of_UART1_framing_err_vect_isr:
  6895                           	callstack 0
  6896                           
  6897 ;; *************** function _INT0_vect_isr *****************
  6898 ;; Defined at:
  6899 ;;		line 203 in file "system.c"
  6900 ;; Parameters:    Size  Location     Type
  6901 ;;		None
  6902 ;; Auto vars:     Size  Location     Type
  6903 ;;		None
  6904 ;; Return value:  Size  Location     Type
  6905 ;;                  1    wreg      void 
  6906 ;; Registers used:
  6907 ;;		None
  6908 ;; Tracked objects:
  6909 ;;		On entry : 0/0
  6910 ;;		On exit  : 0/0
  6911 ;;		Unchanged: 0/0
  6912 ;; Data sizes:     COMRAM   BANK5   BANK6   BANK7   BANK8
  6913 ;;      Params:         0       0       0       0       0
  6914 ;;      Locals:         0       0       0       0       0
  6915 ;;      Temps:          0       0       0       0       0
  6916 ;;      Totals:         0       0       0       0       0
  6917 ;;Total ram usage:        0 bytes
  6918 ;; Hardware stack levels used: 1
  6919 ;; Hardware stack levels required when called: 3
  6920 ;; This function calls:
  6921 ;;		Nothing
  6922 ;; This function is called by:
  6923 ;;		Interrupt level 1
  6924 ;; This function uses a non-reentrant model
  6925 ;;
  6926                           
  6927                           	psect	text42
  6928  00148C                     __ptext42:
  6929                           	callstack 0
  6930  00148C                     _INT0_vect_isr:
  6931                           	callstack 110
  6932                           
  6933                           ; BSR set to: 2
  6934                           ;incstack = 0
  6935  00148C  90B4               	bcf	180,0,c	;volatile
  6936  00148E  9ABE               	bcf	190,5,c	;volatile
  6937  001490  00FF               	reset		;# 
  6938  001492  0011               	retfie		f
  6939  001494                     __end_of_INT0_vect_isr:
  6940                           	callstack 0
  6941                           
  6942 ;; *************** function _UART1_rx_vect_isr *****************
  6943 ;; Defined at:
  6944 ;;		line 125 in file "uart1.c"
  6945 ;; Parameters:    Size  Location     Type
  6946 ;;		None
  6947 ;; Auto vars:     Size  Location     Type
  6948 ;;		None
  6949 ;; Return value:  Size  Location     Type
  6950 ;;                  1    wreg      void 
  6951 ;; Registers used:
  6952 ;;		wreg, fsr2l, fsr2h, status,2, status,0, cstack
  6953 ;; Tracked objects:
  6954 ;;		On entry : 0/0
  6955 ;;		On exit  : 3F/2
  6956 ;;		Unchanged: 0/0
  6957 ;; Data sizes:     COMRAM   BANK5   BANK6   BANK7   BANK8
  6958 ;;      Params:         0       0       0       0       0
  6959 ;;      Locals:         0       0       0       0       0
  6960 ;;      Temps:          0       0       0       0       0
  6961 ;;      Totals:         0       0       0       0       0
  6962 ;;Total ram usage:        0 bytes
  6963 ;; Hardware stack levels used: 1
  6964 ;; Hardware stack levels required when called: 2
  6965 ;; This function calls:
  6966 ;;		_toupper
  6967 ;;		i2_putch
  6968 ;; This function is called by:
  6969 ;;		Interrupt level 2
  6970 ;; This function uses a non-reentrant model
  6971 ;;
  6972                           
  6973                           	psect	text43
  6974  001210                     __ptext43:
  6975                           	callstack 0
  6976  001210                     _UART1_rx_vect_isr:
  6977                           	callstack 110
  6978                           
  6979                           ;uart1.c: 127:  buff_count++;
  6980                           
  6981                           ;incstack = 0
  6982  001210  2A45               	incf	_buff_count^(0+1280),f,c
  6983                           
  6984                           ;uart1.c: 128:  buffer[ buff_in++ ] = (uint8_t)toupper(U1RXB);
  6985  001212  0E00               	movlw	low _buffer
  6986  001214  2447               	addwf	_buff_in^(0+1280),w,c
  6987  001216  6ED9               	movwf	fsr2l,c
  6988  001218  6ADA               	clrf	fsr2h,c
  6989  00121A  0E06               	movlw	high _buffer
  6990  00121C  22DA               	addwfc	fsr2h,f,c
  6991  00121E  0060 FA84  F507    	movff	673,toupper@c	;volatile
  6992  001224  6A08               	clrf	(toupper@c+1)^(0+1280),c
  6993  001226  ECD1  F008         	call	_toupper	;wreg free
  6994  00122A  5007               	movf	?_toupper^(0+1280),w,c
  6995  00122C  6EDF               	movwf	indf2,c
  6996  00122E  2A47               	incf	_buff_in^(0+1280),f,c
  6997                           
  6998                           ;uart1.c: 129:  if( buff_count == 192 ) putch( 0x13 );
  6999  001230  0EC0               	movlw	192
  7000  001232  1845               	xorwf	_buff_count^(0+1280),w,c
  7001  001234  A4D8               	btfss	status,2,c
  7002  001236  D003               	goto	i2l3099
  7003  001238  0E13               	movlw	19
  7004  00123A  EC3E  F00A         	call	i2_putch
  7005  00123E                     i2l3099:
  7006                           
  7007                           ;uart1.c: 130:   U1ERRIRbits.U1RXFOIF=0;
  7008  00123E  0102               	movlb	2	; () banked
  7009  001240  93B2               	bcf	178,1,b	;volatile
  7010                           
  7011                           ; BSR set to: 2
  7012  001242  0011               	retfie		f
  7013  001244                     __end_of_UART1_rx_vect_isr:
  7014                           	callstack 0
  7015                           
  7016 ;; *************** function i2_putch *****************
  7017 ;; Defined at:
  7018 ;;		line 94 in file "uart1.c"
  7019 ;; Parameters:    Size  Location     Type
  7020 ;;  b               1    wreg     unsigned char 
  7021 ;; Auto vars:     Size  Location     Type
  7022 ;;  b               1   12[COMRAM] unsigned char 
  7023 ;; Return value:  Size  Location     Type
  7024 ;;                  1    wreg      void 
  7025 ;; Registers used:
  7026 ;;		wreg
  7027 ;; Tracked objects:
  7028 ;;		On entry : 0/0
  7029 ;;		On exit  : 3F/2
  7030 ;;		Unchanged: 0/0
  7031 ;; Data sizes:     COMRAM   BANK5   BANK6   BANK7   BANK8
  7032 ;;      Params:         0       0       0       0       0
  7033 ;;      Locals:         1       0       0       0       0
  7034 ;;      Temps:          0       0       0       0       0
  7035 ;;      Totals:         1       0       0       0       0
  7036 ;;Total ram usage:        1 bytes
  7037 ;; Hardware stack levels used: 1
  7038 ;; This function calls:
  7039 ;;		Nothing
  7040 ;; This function is called by:
  7041 ;;		_UART1_rx_vect_isr
  7042 ;;		i2_getch
  7043 ;; This function uses a non-reentrant model
  7044 ;;
  7045                           
  7046                           	psect	text44
  7047  00147C                     __ptext44:
  7048                           	callstack 0
  7049  00147C                     i2_putch:
  7050                           	callstack 110
  7051                           
  7052                           ; BSR set to: 2
  7053                           ;incstack = 0
  7054                           ;i2putch@b stored from wreg
  7055  00147C  6E0D               	movwf	i2putch@b^(0+1280),c
  7056  00147E                     
  7057                           ;uart1.c: 94: void putch( uint8_t b );uart1.c: 95: {;uart1.c: 96:  while( U1FIFObits.TXB
      +                          F );
  7058  00147E  0102               	movlb	2	; () banked
  7059  001480  B9B0               	btfsc	176,4,b	;volatile
  7060  001482  D7FD               	goto	i2l2895
  7061                           
  7062                           ; BSR set to: 2
  7063                           ;uart1.c: 97:  U1TXB = b;
  7064  001484  0061  F434  F2A3   	movff	i2putch@b,675	;volatile
  7065                           
  7066                           ; BSR set to: 2
  7067  00148A  0012               	return		;funcret
  7068  00148C                     __end_ofi2_putch:
  7069                           	callstack 0
  7070                           
  7071 ;; *************** function _toupper *****************
  7072 ;; Defined at:
  7073 ;;		line 4 in file "/opt/microchip/xc8/v2.36/pic/sources/c99/common/toupper.c"
  7074 ;; Parameters:    Size  Location     Type
  7075 ;;  c               2    6[COMRAM] int 
  7076 ;; Auto vars:     Size  Location     Type
  7077 ;;		None
  7078 ;; Return value:  Size  Location     Type
  7079 ;;                  2    6[COMRAM] int 
  7080 ;; Registers used:
  7081 ;;		wreg, status,2, status,0
  7082 ;; Tracked objects:
  7083 ;;		On entry : 0/0
  7084 ;;		On exit  : 0/0
  7085 ;;		Unchanged: 0/0
  7086 ;; Data sizes:     COMRAM   BANK5   BANK6   BANK7   BANK8
  7087 ;;      Params:         2       0       0       0       0
  7088 ;;      Locals:         0       0       0       0       0
  7089 ;;      Temps:          4       0       0       0       0
  7090 ;;      Totals:         6       0       0       0       0
  7091 ;;Total ram usage:        6 bytes
  7092 ;; Hardware stack levels used: 1
  7093 ;; Hardware stack levels required when called: 1
  7094 ;; This function calls:
  7095 ;;		_islower
  7096 ;; This function is called by:
  7097 ;;		_UART1_rx_vect_isr
  7098 ;; This function uses a non-reentrant model
  7099 ;;
  7100                           
  7101                           	psect	text45
  7102  0011A2                     __ptext45:
  7103                           	callstack 0
  7104  0011A2                     _toupper:
  7105                           	callstack 110
  7106                           
  7107                           ; BSR set to: 2
  7108                           ;incstack = 0
  7109  0011A2  0E9F               	movlw	159
  7110  0011A4  6E09               	movwf	??_toupper^(0+1280),c
  7111  0011A6  0EFF               	movlw	255
  7112  0011A8  6E0A               	movwf	(??_toupper+1)^(0+1280),c
  7113  0011AA  C507  F50B         	movff	toupper@c,??_toupper+2
  7114  0011AE  C508  F50C         	movff	toupper@c+1,??_toupper+3
  7115  0011B2  5009               	movf	??_toupper^(0+1280),w,c
  7116  0011B4  260B               	addwf	(??_toupper+2)^(0+1280),f,c
  7117  0011B6  500A               	movf	(??_toupper+1)^(0+1280),w,c
  7118  0011B8  220C               	addwfc	(??_toupper+3)^(0+1280),f,c
  7119  0011BA  500C               	movf	(??_toupper+3)^(0+1280),w,c
  7120  0011BC  E109               	bnz	i2l1311
  7121  0011BE  0E1A               	movlw	26
  7122  0011C0  5C0B               	subwf	(??_toupper+2)^(0+1280),w,c
  7123  0011C2  B0D8               	btfsc	status,0,c
  7124  0011C4  D005               	goto	i2l1311
  7125  0011C6  0E5F               	movlw	95
  7126  0011C8  1407               	andwf	toupper@c^(0+1280),w,c
  7127  0011CA  6E07               	movwf	?_toupper^(0+1280),c
  7128  0011CC  6A08               	clrf	(?_toupper+1)^(0+1280),c
  7129  0011CE  0012               	return	
  7130  0011D0                     i2l1311:
  7131  0011D0  C507  F507         	movff	toupper@c,?_toupper
  7132  0011D4  C508  F508         	movff	toupper@c+1,?_toupper+1
  7133  0011D8  0012               	return		;funcret
  7134  0011DA                     __end_of_toupper:
  7135                           	callstack 0
  7136                           
  7137 ;; *************** function _islower *****************
  7138 ;; Defined at:
  7139 ;;		line 5 in file "/opt/microchip/xc8/v2.36/pic/sources/c99/common/islower.c"
  7140 ;; Parameters:    Size  Location     Type
  7141 ;;  c               2    0[COMRAM] int 
  7142 ;; Auto vars:     Size  Location     Type
  7143 ;;		None
  7144 ;; Return value:  Size  Location     Type
  7145 ;;                  2    0[COMRAM] int 
  7146 ;; Registers used:
  7147 ;;		wreg, status,2, status,0
  7148 ;; Tracked objects:
  7149 ;;		On entry : 0/0
  7150 ;;		On exit  : 0/0
  7151 ;;		Unchanged: 0/0
  7152 ;; Data sizes:     COMRAM   BANK5   BANK6   BANK7   BANK8
  7153 ;;      Params:         2       0       0       0       0
  7154 ;;      Locals:         0       0       0       0       0
  7155 ;;      Temps:          4       0       0       0       0
  7156 ;;      Totals:         6       0       0       0       0
  7157 ;;Total ram usage:        6 bytes
  7158 ;; Hardware stack levels used: 1
  7159 ;; This function calls:
  7160 ;;		Nothing
  7161 ;; This function is called by:
  7162 ;;		_toupper
  7163 ;; This function uses a non-reentrant model
  7164 ;;
  7165                           
  7166                           	psect	text46
  7167  0012A8                     __ptext46:
  7168                           	callstack 0
  7169  0012A8                     _islower:
  7170                           	callstack 110
  7171                           
  7172                           ;incstack = 0
  7173  0012A8  0E9F               	movlw	159
  7174  0012AA  6E03               	movwf	??_islower^(0+1280),c
  7175  0012AC  0EFF               	movlw	255
  7176  0012AE  6E04               	movwf	(??_islower+1)^(0+1280),c
  7177  0012B0  C501  F505         	movff	islower@c,??_islower+2
  7178  0012B4  C502  F506         	movff	islower@c+1,??_islower+3
  7179  0012B8  5003               	movf	??_islower^(0+1280),w,c
  7180  0012BA  2605               	addwf	(??_islower+2)^(0+1280),f,c
  7181  0012BC  5004               	movf	(??_islower+1)^(0+1280),w,c
  7182  0012BE  2206               	addwfc	(??_islower+3)^(0+1280),f,c
  7183  0012C0  5006               	movf	(??_islower+3)^(0+1280),w,c
  7184  0012C2  E106               	bnz	i2u156_40
  7185  0012C4  0E1A               	movlw	26
  7186  0012C6  5C05               	subwf	(??_islower+2)^(0+1280),w,c
  7187  0012C8  B0D8               	btfsc	status,0,c
  7188  0012CA  D002               	goto	i2u156_40
  7189  0012CC  0E01               	movlw	1
  7190  0012CE  D001               	goto	i2u157_40
  7191  0012D0                     i2u156_40:
  7192  0012D0  0E00               	movlw	0
  7193  0012D2                     i2u157_40:
  7194  0012D2  6E01               	movwf	?_islower^(0+1280),c
  7195  0012D4  6A02               	clrf	(?_islower+1)^(0+1280),c
  7196  0012D6  0012               	return		;funcret
  7197  0012D8                     __end_of_islower:
  7198                           	callstack 0
  7199                           
  7200 ;; *************** function _CLC1_vect_isr *****************
  7201 ;; Defined at:
  7202 ;;		line 182 in file "CLC.c"
  7203 ;; Parameters:    Size  Location     Type
  7204 ;;		None
  7205 ;; Auto vars:     Size  Location     Type
  7206 ;;		None
  7207 ;; Return value:  Size  Location     Type
  7208 ;;                  1    wreg      void 
  7209 ;; Registers used:
  7210 ;;		wreg, fsr2l, fsr2h, status,2, status,0, cstack
  7211 ;; Tracked objects:
  7212 ;;		On entry : 0/0
  7213 ;;		On exit  : 3F/0
  7214 ;;		Unchanged: 0/0
  7215 ;; Data sizes:     COMRAM   BANK5   BANK6   BANK7   BANK8
  7216 ;;      Params:         0       0       0       0       0
  7217 ;;      Locals:         6       0       0       0       0
  7218 ;;      Temps:          2       0       0       0       0
  7219 ;;      Totals:         8       0       0       0       0
  7220 ;;Total ram usage:        8 bytes
  7221 ;; Hardware stack levels used: 1
  7222 ;; Hardware stack levels required when called: 2
  7223 ;; This function calls:
  7224 ;;		i2_getch
  7225 ;;		i2_kbhit
  7226 ;; This function is called by:
  7227 ;;		Interrupt level 2
  7228 ;; This function uses a non-reentrant model
  7229 ;;
  7230                           
  7231                           	psect	text47
  7232  000968                     __ptext47:
  7233                           	callstack 0
  7234  000968                     _CLC1_vect_isr:
  7235                           	callstack 110
  7236                           
  7237                           ;CLC.c: 184:  if(PORTAbits.RA2)
  7238                           
  7239                           ;incstack = 0
  7240  000968  A4CE               	btfss	206,2,c	;volatile
  7241  00096A  D03F               	goto	i2l515
  7242                           
  7243                           ;CLC.c: 185:  {;CLC.c: 186:   if(PORTBbits.RB6)
  7244  00096C  ACCF               	btfss	207,6,c	;volatile
  7245  00096E  D011               	goto	i2l516
  7246                           
  7247                           ;CLC.c: 187:   {;CLC.c: 188:    if(PORTBbits.RB7)
  7248  000970  BECF               	btfsc	207,7,c	;volatile
  7249  000972  D038               	goto	i2l3131
  7250                           
  7251                           ;CLC.c: 193:    {;CLC.c: 194:     LATC = (U1FIFObits.TXBF) ? 0x80 : 0x00;
  7252                           
  7253                           ;CLC.c: 192:    else
  7254  000974  0102               	movlb	2	; () banked
  7255  000976  B9B0               	btfsc	176,4,b	;volatile
  7256  000978  D004               	goto	i2l3111
  7257                           
  7258                           ; BSR set to: 2
  7259  00097A  0E00               	movlw	0
  7260  00097C  6E13               	movwf	(_CLC1_vect_isr$1948+1)^(0+1280),c
  7261  00097E  0E00               	movlw	0
  7262  000980  D003               	goto	L6
  7263  000982                     i2l3111:
  7264                           
  7265                           ; BSR set to: 2
  7266  000982  0E00               	movlw	0
  7267  000984  6E13               	movwf	(_CLC1_vect_isr$1948+1)^(0+1280),c
  7268  000986  0E80               	movlw	128
  7269  000988                     L6:
  7270  000988  6E12               	movwf	_CLC1_vect_isr$1948^(0+1280),c
  7271                           
  7272                           ; BSR set to: 2
  7273  00098A  0061  F448  F4C0   	movff	_CLC1_vect_isr$1948,1216	;volatile
  7274  000990  D029               	goto	i2l3131
  7275  000992                     i2l516:
  7276                           
  7277                           ;CLC.c: 198:   {;CLC.c: 199:    if(PORTBbits.RB7)
  7278  000992  AECF               	btfss	207,7,c	;volatile
  7279  000994  D011               	goto	i2l3123
  7280                           
  7281                           ;CLC.c: 200:    {;CLC.c: 201:     LATC = kbhit() ? 0x80 : 0x00;
  7282  000996  EC4C  F00A         	call	i2_kbhit	;wreg free
  7283  00099A  0900               	iorlw	0
  7284  00099C  A4D8               	btfss	status,2,c
  7285  00099E  D004               	goto	i2l3119
  7286  0009A0  0E00               	movlw	0
  7287  0009A2  6E15               	movwf	(_CLC1_vect_isr$1949+1)^(0+1280),c
  7288  0009A4  0E00               	movlw	0
  7289  0009A6  D003               	goto	L7
  7290  0009A8                     i2l3119:
  7291  0009A8  0E00               	movlw	0
  7292  0009AA  6E15               	movwf	(_CLC1_vect_isr$1949+1)^(0+1280),c
  7293  0009AC  0E80               	movlw	128
  7294  0009AE                     L7:
  7295  0009AE  6E14               	movwf	_CLC1_vect_isr$1949^(0+1280),c
  7296  0009B0  0061  F450  F4C0   	movff	_CLC1_vect_isr$1949,1216	;volatile
  7297                           
  7298                           ;CLC.c: 202:    }
  7299  0009B6  D016               	goto	i2l3131
  7300  0009B8                     i2l3123:
  7301                           
  7302                           ;CLC.c: 204:    {;CLC.c: 205:     LATC = kbhit() ? (getch() | 0x80) : 0x00;
  7303  0009B8  EC4C  F00A         	call	i2_kbhit	;wreg free
  7304  0009BC  0900               	iorlw	0
  7305  0009BE  A4D8               	btfss	status,2,c
  7306  0009C0  D005               	goto	i2l3127
  7307  0009C2  0E00               	movlw	0
  7308  0009C4  6E17               	movwf	(_CLC1_vect_isr$1950+1)^(0+1280),c
  7309  0009C6  0E00               	movlw	0
  7310  0009C8  6E16               	movwf	_CLC1_vect_isr$1950^(0+1280),c
  7311  0009CA  D009               	goto	i2l3129
  7312  0009CC                     i2l3127:
  7313  0009CC  EC3B  F009         	call	i2_getch	;wreg free
  7314  0009D0  6E10               	movwf	??_CLC1_vect_isr^(0+1280),c
  7315  0009D2  6A11               	clrf	(??_CLC1_vect_isr+1)^(0+1280),c
  7316  0009D4  0E80               	movlw	128
  7317  0009D6  1010               	iorwf	??_CLC1_vect_isr^(0+1280),w,c
  7318  0009D8  6E16               	movwf	_CLC1_vect_isr$1950^(0+1280),c
  7319  0009DA  5011               	movf	(??_CLC1_vect_isr+1)^(0+1280),w,c
  7320  0009DC  6E17               	movwf	(_CLC1_vect_isr$1950+1)^(0+1280),c
  7321  0009DE                     i2l3129:
  7322  0009DE  0061  F458  F4C0   	movff	_CLC1_vect_isr$1950,1216	;volatile
  7323  0009E4                     i2l3131:
  7324                           
  7325                           ;CLC.c: 208:   TRISC=0x00;
  7326  0009E4  0E00               	movlw	0
  7327  0009E6  6EC8               	movwf	200,c	;volatile
  7328                           
  7329                           ;CLC.c: 209:    }
  7330  0009E8  D00C               	goto	i2l534
  7331  0009EA                     i2l515:
  7332                           
  7333                           ;CLC.c: 211:  {;CLC.c: 212:   if(PORTBbits.RB6)
  7334  0009EA  ACCF               	btfss	207,6,c	;volatile
  7335  0009EC  D009               	goto	i2l535
  7336                           
  7337                           ;CLC.c: 213:   {;CLC.c: 214:    if(PORTBbits.RB7)
  7338  0009EE  BECF               	btfsc	207,7,c	;volatile
  7339  0009F0  D008               	goto	i2l534
  7340                           
  7341                           ;CLC.c: 219:    {;CLC.c: 220:     if(!U1FIFObits.TXBF)
  7342                           
  7343                           ;CLC.c: 218:    else
  7344  0009F2  0102               	movlb	2	; () banked
  7345  0009F4  B9B0               	btfsc	176,4,b	;volatile
  7346  0009F6  D005               	goto	i2l534
  7347                           
  7348                           ; BSR set to: 2
  7349                           ;CLC.c: 221:     {;CLC.c: 222:      U1TXB=PORTC & 0x7F;
  7350  0009F8  50D0               	movf	208,w,c	;volatile
  7351  0009FA  0B7F               	andlw	127
  7352  0009FC  6FA3               	movwf	163,b	;volatile
  7353  0009FE  D001               	goto	i2l534
  7354  000A00                     i2l535:
  7355                           
  7356                           ;CLC.c: 227:   {;CLC.c: 228:    if(PORTBbits.RB7)
  7357  000A00  50CF               	movf	207,w,c	;volatile
  7358  000A02                     i2l534:
  7359                           
  7360                           ;CLC.c: 238:  PIR0bits.CLC1IF=0;
  7361  000A02  9AB3               	bcf	179,5,c	;volatile
  7362                           
  7363                           ;CLC.c: 239:   CLCSELECTbits.SLCT=0b01;
  7364  000A04  0E01               	movlw	1
  7365  000A06  0100               	movlb	0	; () banked
  7366  000A08  6FD5               	movwf	213,b	;volatile
  7367                           
  7368                           ; BSR set to: 0
  7369                           ;CLC.c: 240:  CLCnPOLbits.POL=1;
  7370  000A0A  8FD7               	bsf	215,7,b	;volatile
  7371                           
  7372                           ; BSR set to: 0
  7373                           ;CLC.c: 241:  CLCnPOLbits.POL=0;
  7374  000A0C  9FD7               	bcf	215,7,b	;volatile
  7375                           
  7376                           ; BSR set to: 0
  7377                           ;CLC.c: 242:  TRISC=0xFF;
  7378  000A0E  68C8               	setf	200,c	;volatile
  7379                           
  7380                           ; BSR set to: 0
  7381  000A10  0011               	retfie		f
  7382  000A12                     __end_of_CLC1_vect_isr:
  7383                           	callstack 0
  7384                           
  7385 ;; *************** function i2_kbhit *****************
  7386 ;; Defined at:
  7387 ;;		line 104 in file "uart1.c"
  7388 ;; Parameters:    Size  Location     Type
  7389 ;;		None
  7390 ;; Auto vars:     Size  Location     Type
  7391 ;;		None
  7392 ;; Return value:  Size  Location     Type
  7393 ;;                  1    wreg      unsigned char 
  7394 ;; Registers used:
  7395 ;;		wreg, status,2
  7396 ;; Tracked objects:
  7397 ;;		On entry : 0/0
  7398 ;;		On exit  : 0/0
  7399 ;;		Unchanged: 0/0
  7400 ;; Data sizes:     COMRAM   BANK5   BANK6   BANK7   BANK8
  7401 ;;      Params:         0       0       0       0       0
  7402 ;;      Locals:         0       0       0       0       0
  7403 ;;      Temps:          0       0       0       0       0
  7404 ;;      Totals:         0       0       0       0       0
  7405 ;;Total ram usage:        0 bytes
  7406 ;; Hardware stack levels used: 1
  7407 ;; This function calls:
  7408 ;;		Nothing
  7409 ;; This function is called by:
  7410 ;;		_CLC1_vect_isr
  7411 ;; This function uses a non-reentrant model
  7412 ;;
  7413                           
  7414                           	psect	text48
  7415  001498                     __ptext48:
  7416                           	callstack 0
  7417  001498                     i2_kbhit:
  7418                           	callstack 111
  7419                           
  7420                           ;uart1.c: 106:  return( buff_count );
  7421                           
  7422                           ; BSR set to: 0
  7423                           ;incstack = 0
  7424  001498  5045               	movf	_buff_count^(0+1280),w,c
  7425  00149A  0012               	return		;funcret
  7426  00149C                     __end_ofi2_kbhit:
  7427                           	callstack 0
  7428                           
  7429 ;; *************** function i2_getch *****************
  7430 ;; Defined at:
  7431 ;;		line 113 in file "uart1.c"
  7432 ;; Parameters:    Size  Location     Type
  7433 ;;		None
  7434 ;; Auto vars:     Size  Location     Type
  7435 ;;		None
  7436 ;; Return value:  Size  Location     Type
  7437 ;;                  1    wreg      unsigned char 
  7438 ;; Registers used:
  7439 ;;		wreg, fsr2l, fsr2h, status,2, status,0, cstack
  7440 ;; Tracked objects:
  7441 ;;		On entry : 0/0
  7442 ;;		On exit  : 0/0
  7443 ;;		Unchanged: 0/0
  7444 ;; Data sizes:     COMRAM   BANK5   BANK6   BANK7   BANK8
  7445 ;;      Params:         0       0       0       0       0
  7446 ;;      Locals:         0       0       0       0       0
  7447 ;;      Temps:          2       0       0       0       0
  7448 ;;      Totals:         2       0       0       0       0
  7449 ;;Total ram usage:        2 bytes
  7450 ;; Hardware stack levels used: 1
  7451 ;; Hardware stack levels required when called: 1
  7452 ;; This function calls:
  7453 ;;		i2_putch
  7454 ;; This function is called by:
  7455 ;;		_CLC1_vect_isr
  7456 ;; This function uses a non-reentrant model
  7457 ;;
  7458                           
  7459                           	psect	text49
  7460  001276                     __ptext49:
  7461                           	callstack 0
  7462  001276                     i2_getch:
  7463                           	callstack 110
  7464                           
  7465                           ;uart1.c: 115:  if(!buff_count) return(0);
  7466                           
  7467                           ;incstack = 0
  7468  001276  5045               	movf	_buff_count^(0+1280),w,c
  7469  001278  A4D8               	btfss	status,2,c
  7470  00127A  D002               	goto	i2l3055
  7471  00127C  0E00               	movlw	0
  7472  00127E  0012               	return	
  7473  001280                     i2l3055:
  7474                           
  7475                           ;uart1.c: 116:  buff_count--;
  7476  001280  0645               	decf	_buff_count^(0+1280),f,c
  7477                           
  7478                           ;uart1.c: 117:  if( buff_count == 64 ) putch( 0x11 );
  7479  001282  0E40               	movlw	64
  7480  001284  1845               	xorwf	_buff_count^(0+1280),w,c
  7481  001286  A4D8               	btfss	status,2,c
  7482  001288  D003               	goto	i2l3061
  7483  00128A  0E11               	movlw	17
  7484  00128C  EC3E  F00A         	call	i2_putch
  7485  001290                     i2l3061:
  7486                           
  7487                           ;uart1.c: 118:  return( buffer[ buff_out++ ] );
  7488  001290  2A46               	incf	_buff_out^(0+1280),f,c
  7489  001292  0446               	decf	_buff_out^(0+1280),w,c
  7490  001294  6E0E               	movwf	??i2_getch^(0+1280),c
  7491  001296  6A0F               	clrf	(??i2_getch+1)^(0+1280),c
  7492  001298  0E00               	movlw	low _buffer
  7493  00129A  240E               	addwf	??i2_getch^(0+1280),w,c
  7494  00129C  6ED9               	movwf	fsr2l,c
  7495  00129E  0E06               	movlw	high _buffer
  7496  0012A0  200F               	addwfc	(??i2_getch+1)^(0+1280),w,c
  7497  0012A2  6EDA               	movwf	fsr2h,c
  7498  0012A4  50DF               	movf	indf2,w,c
  7499  0012A6  0012               	return		;funcret
  7500  0012A8                     __end_ofi2_getch:
  7501                           	callstack 0
  7502                           
  7503                           ;
  7504                           ; Interrupt Vector Table @ 0x8
  7505                           ;
  7506                           
  7507                           	psect	ivt0x8
  7508  000008                     __pivt0x8:
  7509                           	callstack 0
  7510  000008                     ivt0x8_base:
  7511                           	callstack 0
  7512                           
  7513                           ; Vector 0 : SWINT
  7514  000008  002E               	dw	ivt0x8_undefint shr (0+2)
  7515                           
  7516                           ; Vector 1 : HLVD
  7517  00000A  002E               	dw	ivt0x8_undefint shr (0+2)
  7518                           
  7519                           ; Vector 2 : OSF
  7520  00000C  002E               	dw	ivt0x8_undefint shr (0+2)
  7521                           
  7522                           ; Vector 3 : CSW
  7523  00000E  002E               	dw	ivt0x8_undefint shr (0+2)
  7524                           
  7525                           ; Vector 4 : NVMIP
  7526  000010  002E               	dw	ivt0x8_undefint shr (0+2)
  7527                           
  7528                           ; Vector 5 : CLC1
  7529  000012  025A               	dw	_CLC1_vect_isr shr (0+2)
  7530                           
  7531                           ; Vector 6 : CRC
  7532  000014  002E               	dw	ivt0x8_undefint shr (0+2)
  7533                           
  7534                           ; Vector 7 : IOC
  7535  000016  002E               	dw	ivt0x8_undefint shr (0+2)
  7536                           
  7537                           ; Vector 8 : INT0
  7538  000018  0523               	dw	_INT0_vect_isr shr (0+2)
  7539                           
  7540                           ; Vector 9 : ZCD
  7541  00001A  002E               	dw	ivt0x8_undefint shr (0+2)
  7542                           
  7543                           ; Vector 10 : AD
  7544  00001C  002E               	dw	ivt0x8_undefint shr (0+2)
  7545                           
  7546                           ; Vector 11 : ACT
  7547  00001E  002E               	dw	ivt0x8_undefint shr (0+2)
  7548                           
  7549                           ; Vector 12 : CMP1
  7550  000020  002E               	dw	ivt0x8_undefint shr (0+2)
  7551                           
  7552                           ; Vector 13 : SMT1
  7553  000022  002E               	dw	ivt0x8_undefint shr (0+2)
  7554                           
  7555                           ; Vector 14 : SMT1PRA
  7556  000024  002E               	dw	ivt0x8_undefint shr (0+2)
  7557                           
  7558                           ; Vector 15 : SMT1PWA
  7559  000026  002E               	dw	ivt0x8_undefint shr (0+2)
  7560                           
  7561                           ; Vector 16 : ADT
  7562  000028  002E               	dw	ivt0x8_undefint shr (0+2)
  7563                           
  7564                           ; Vector 17 : Undefined
  7565  00002A  002E               	dw	ivt0x8_undefint shr (0+2)
  7566                           
  7567                           ; Vector 18 : Undefined
  7568  00002C  002E               	dw	ivt0x8_undefint shr (0+2)
  7569                           
  7570                           ; Vector 19 : Undefined
  7571  00002E  002E               	dw	ivt0x8_undefint shr (0+2)
  7572                           
  7573                           ; Vector 20 : DMA1SCNT
  7574  000030  002E               	dw	ivt0x8_undefint shr (0+2)
  7575                           
  7576                           ; Vector 21 : DMA1DCNT
  7577  000032  002E               	dw	ivt0x8_undefint shr (0+2)
  7578                           
  7579                           ; Vector 22 : DMA1OR
  7580  000034  002E               	dw	ivt0x8_undefint shr (0+2)
  7581                           
  7582                           ; Vector 23 : DMA1A
  7583  000036  002E               	dw	ivt0x8_undefint shr (0+2)
  7584                           
  7585                           ; Vector 24 : SPI1RX
  7586  000038  002E               	dw	ivt0x8_undefint shr (0+2)
  7587                           
  7588                           ; Vector 25 : SPI1TX
  7589  00003A  002E               	dw	ivt0x8_undefint shr (0+2)
  7590                           
  7591                           ; Vector 26 : SPI1
  7592  00003C  002E               	dw	ivt0x8_undefint shr (0+2)
  7593                           
  7594                           ; Vector 27 : TMR2
  7595  00003E  002E               	dw	ivt0x8_undefint shr (0+2)
  7596                           
  7597                           ; Vector 28 : TMR1
  7598  000040  002E               	dw	ivt0x8_undefint shr (0+2)
  7599                           
  7600                           ; Vector 29 : TMR1G
  7601  000042  002E               	dw	ivt0x8_undefint shr (0+2)
  7602                           
  7603                           ; Vector 30 : CCP1
  7604  000044  002E               	dw	ivt0x8_undefint shr (0+2)
  7605                           
  7606                           ; Vector 31 : TMR0
  7607  000046  002E               	dw	ivt0x8_undefint shr (0+2)
  7608                           
  7609                           ; Vector 32 : U1RX
  7610  000048  0484               	dw	_UART1_rx_vect_isr shr (0+2)
  7611                           
  7612                           ; Vector 33 : U1TX
  7613  00004A  002E               	dw	ivt0x8_undefint shr (0+2)
  7614                           
  7615                           ; Vector 34 : U1E
  7616  00004C  050B               	dw	_UART1_framing_err_vect_isr shr (0+2)
  7617                           
  7618                           ; Vector 35 : U1
  7619  00004E  002E               	dw	ivt0x8_undefint shr (0+2)
  7620                           
  7621                           ; Vector 36 : TMR3
  7622  000050  002E               	dw	ivt0x8_undefint shr (0+2)
  7623                           
  7624                           ; Vector 37 : TMR3G
  7625  000052  002E               	dw	ivt0x8_undefint shr (0+2)
  7626                           
  7627                           ; Vector 38 : PWM1PR
  7628  000054  002E               	dw	ivt0x8_undefint shr (0+2)
  7629                           
  7630                           ; Vector 39 : PWM1
  7631  000056  002E               	dw	ivt0x8_undefint shr (0+2)
  7632                           
  7633                           ; Vector 40 : SPI2RX
  7634  000058  002E               	dw	ivt0x8_undefint shr (0+2)
  7635                           
  7636                           ; Vector 41 : SPI2TX
  7637  00005A  002E               	dw	ivt0x8_undefint shr (0+2)
  7638                           
  7639                           ; Vector 42 : SPI2
  7640  00005C  002E               	dw	ivt0x8_undefint shr (0+2)
  7641                           
  7642                           ; Vector 43 : Undefined
  7643  00005E  002E               	dw	ivt0x8_undefint shr (0+2)
  7644                           
  7645                           ; Vector 44 : CMP2
  7646  000060  002E               	dw	ivt0x8_undefint shr (0+2)
  7647                           
  7648                           ; Vector 45 : CLC2
  7649  000062  002E               	dw	ivt0x8_undefint shr (0+2)
  7650                           
  7651                           ; Vector 46 : PWM2PR
  7652  000064  002E               	dw	ivt0x8_undefint shr (0+2)
  7653                           
  7654                           ; Vector 47 : PWM2
  7655  000066  002E               	dw	ivt0x8_undefint shr (0+2)
  7656                           
  7657                           ; Vector 48 : INT1
  7658  000068  002E               	dw	ivt0x8_undefint shr (0+2)
  7659                           
  7660                           ; Vector 49 : CWG1
  7661  00006A  002E               	dw	ivt0x8_undefint shr (0+2)
  7662                           
  7663                           ; Vector 50 : NCO1
  7664  00006C  002E               	dw	ivt0x8_undefint shr (0+2)
  7665                           
  7666                           ; Vector 51 : DMA2SCNT
  7667  00006E  002E               	dw	ivt0x8_undefint shr (0+2)
  7668                           
  7669                           ; Vector 52 : DMA2DCNT
  7670  000070  002E               	dw	ivt0x8_undefint shr (0+2)
  7671                           
  7672                           ; Vector 53 : DMA2OR
  7673  000072  002E               	dw	ivt0x8_undefint shr (0+2)
  7674                           
  7675                           ; Vector 54 : DMA2A
  7676  000074  002E               	dw	ivt0x8_undefint shr (0+2)
  7677                           
  7678                           ; Vector 55 : Undefined
  7679  000076  002E               	dw	ivt0x8_undefint shr (0+2)
  7680                           
  7681                           ; Vector 56 : I2C1RX
  7682  000078  002E               	dw	ivt0x8_undefint shr (0+2)
  7683                           
  7684                           ; Vector 57 : I2C1TX
  7685  00007A  002E               	dw	ivt0x8_undefint shr (0+2)
  7686                           
  7687                           ; Vector 58 : I2C1
  7688  00007C  002E               	dw	ivt0x8_undefint shr (0+2)
  7689                           
  7690                           ; Vector 59 : I2C1E
  7691  00007E  002E               	dw	ivt0x8_undefint shr (0+2)
  7692                           
  7693                           ; Vector 60 : Undefined
  7694  000080  002E               	dw	ivt0x8_undefint shr (0+2)
  7695                           
  7696                           ; Vector 61 : CLC3
  7697  000082  002E               	dw	ivt0x8_undefint shr (0+2)
  7698                           
  7699                           ; Vector 62 : PWM3PR
  7700  000084  002E               	dw	ivt0x8_undefint shr (0+2)
  7701                           
  7702                           ; Vector 63 : PWM3
  7703  000086  002E               	dw	ivt0x8_undefint shr (0+2)
  7704                           
  7705                           ; Vector 64 : U2RX
  7706  000088  002E               	dw	ivt0x8_undefint shr (0+2)
  7707                           
  7708                           ; Vector 65 : U2TX
  7709  00008A  002E               	dw	ivt0x8_undefint shr (0+2)
  7710                           
  7711                           ; Vector 66 : U2E
  7712  00008C  002E               	dw	ivt0x8_undefint shr (0+2)
  7713                           
  7714                           ; Vector 67 : U2
  7715  00008E  002E               	dw	ivt0x8_undefint shr (0+2)
  7716                           
  7717                           ; Vector 68 : Undefined
  7718  000090  002E               	dw	ivt0x8_undefint shr (0+2)
  7719                           
  7720                           ; Vector 69 : CLC4
  7721  000092  002E               	dw	ivt0x8_undefint shr (0+2)
  7722                           
  7723                           ; Vector 70 : Undefined
  7724  000094  002E               	dw	ivt0x8_undefint shr (0+2)
  7725                           
  7726                           ; Vector 71 : SCAN
  7727  000096  002E               	dw	ivt0x8_undefint shr (0+2)
  7728                           
  7729                           ; Vector 72 : U3RX
  7730  000098  002E               	dw	ivt0x8_undefint shr (0+2)
  7731                           
  7732                           ; Vector 73 : U3TX
  7733  00009A  002E               	dw	ivt0x8_undefint shr (0+2)
  7734                           
  7735                           ; Vector 74 : U3E
  7736  00009C  002E               	dw	ivt0x8_undefint shr (0+2)
  7737                           
  7738                           ; Vector 75 : U3
  7739  00009E  002E               	dw	ivt0x8_undefint shr (0+2)
  7740                           
  7741                           ; Vector 76 : DMA3SCNT
  7742  0000A0  002E               	dw	ivt0x8_undefint shr (0+2)
  7743                           
  7744                           ; Vector 77 : DMA3DCNT
  7745  0000A2  002E               	dw	ivt0x8_undefint shr (0+2)
  7746                           
  7747                           ; Vector 78 : DMA3OR
  7748  0000A4  002E               	dw	ivt0x8_undefint shr (0+2)
  7749                           
  7750                           ; Vector 79 : DMA3A
  7751  0000A6  002E               	dw	ivt0x8_undefint shr (0+2)
  7752                           
  7753                           ; Vector 80 : INT2
  7754  0000A8  002E               	dw	ivt0x8_undefint shr (0+2)
  7755                           
  7756                           ; Vector 81 : Undefined
  7757  0000AA  002E               	dw	ivt0x8_undefint shr (0+2)
  7758                           
  7759                           ; Vector 82 : Undefined
  7760  0000AC  002E               	dw	ivt0x8_undefint shr (0+2)
  7761                           
  7762                           ; Vector 83 : TMR4
  7763  0000AE  002E               	dw	ivt0x8_undefint shr (0+2)
  7764                           
  7765                           ; Vector 84 : DMA4SCNT
  7766  0000B0  002E               	dw	ivt0x8_undefint shr (0+2)
  7767                           
  7768                           ; Vector 85 : DMA4DCNT
  7769  0000B2  002E               	dw	ivt0x8_undefint shr (0+2)
  7770                           
  7771                           ; Vector 86 : DMA4OR
  7772  0000B4  002E               	dw	ivt0x8_undefint shr (0+2)
  7773                           
  7774                           ; Vector 87 : DMA4A
  7775  0000B6  002E               	dw	ivt0x8_undefint shr (0+2)
  7776  0000B8                     ivt0x8_undefint:
  7777                           	callstack 0
  7778  0000B8  00FF               	reset	
  7779                           
  7780                           	psect	rparam
  7781  0000                     
  7782                           	psect	idloc
  7783                           
  7784                           ;Config register IDLOC0 @ 0x200000
  7785                           ;	unspecified, using default values
  7786  200000                     	org	2097152
  7787  200000  0FFF               	dw	4095
  7788                           
  7789                           ;Config register IDLOC1 @ 0x200002
  7790                           ;	unspecified, using default values
  7791  200002                     	org	2097154
  7792  200002  0FFF               	dw	4095
  7793                           
  7794                           ;Config register IDLOC2 @ 0x200004
  7795                           ;	unspecified, using default values
  7796  200004                     	org	2097156
  7797  200004  0FFF               	dw	4095
  7798                           
  7799                           ;Config register IDLOC3 @ 0x200006
  7800                           ;	unspecified, using default values
  7801  200006                     	org	2097158
  7802  200006  0FFF               	dw	4095
  7803                           
  7804                           ;Config register IDLOC4 @ 0x200008
  7805                           ;	unspecified, using default values
  7806  200008                     	org	2097160
  7807  200008  0FFF               	dw	4095
  7808                           
  7809                           ;Config register IDLOC5 @ 0x20000A
  7810                           ;	unspecified, using default values
  7811  20000A                     	org	2097162
  7812  20000A  0FFF               	dw	4095
  7813                           
  7814                           ;Config register IDLOC6 @ 0x20000C
  7815                           ;	unspecified, using default values
  7816  20000C                     	org	2097164
  7817  20000C  0FFF               	dw	4095
  7818                           
  7819                           ;Config register IDLOC7 @ 0x20000E
  7820                           ;	unspecified, using default values
  7821  20000E                     	org	2097166
  7822  20000E  0FFF               	dw	4095
  7823                           
  7824                           ;Config register IDLOC8 @ 0x200010
  7825                           ;	unspecified, using default values
  7826  200010                     	org	2097168
  7827  200010  0FFF               	dw	4095
  7828                           
  7829                           ;Config register IDLOC9 @ 0x200012
  7830                           ;	unspecified, using default values
  7831  200012                     	org	2097170
  7832  200012  0FFF               	dw	4095
  7833                           
  7834                           ;Config register IDLOC10 @ 0x200014
  7835                           ;	unspecified, using default values
  7836  200014                     	org	2097172
  7837  200014  0FFF               	dw	4095
  7838                           
  7839                           ;Config register IDLOC11 @ 0x200016
  7840                           ;	unspecified, using default values
  7841  200016                     	org	2097174
  7842  200016  0FFF               	dw	4095
  7843                           
  7844                           ;Config register IDLOC12 @ 0x200018
  7845                           ;	unspecified, using default values
  7846  200018                     	org	2097176
  7847  200018  0FFF               	dw	4095
  7848                           
  7849                           ;Config register IDLOC13 @ 0x20001A
  7850                           ;	unspecified, using default values
  7851  20001A                     	org	2097178
  7852  20001A  0FFF               	dw	4095
  7853                           
  7854                           ;Config register IDLOC14 @ 0x20001C
  7855                           ;	unspecified, using default values
  7856  20001C                     	org	2097180
  7857  20001C  0FFF               	dw	4095
  7858                           
  7859                           ;Config register IDLOC15 @ 0x20001E
  7860                           ;	unspecified, using default values
  7861  20001E                     	org	2097182
  7862  20001E  0FFF               	dw	4095
  7863                           
  7864                           ;Config register IDLOC16 @ 0x200020
  7865                           ;	unspecified, using default values
  7866  200020                     	org	2097184
  7867  200020  0FFF               	dw	4095
  7868                           
  7869                           ;Config register IDLOC17 @ 0x200022
  7870                           ;	unspecified, using default values
  7871  200022                     	org	2097186
  7872  200022  0FFF               	dw	4095
  7873                           
  7874                           ;Config register IDLOC18 @ 0x200024
  7875                           ;	unspecified, using default values
  7876  200024                     	org	2097188
  7877  200024  0FFF               	dw	4095
  7878                           
  7879                           ;Config register IDLOC19 @ 0x200026
  7880                           ;	unspecified, using default values
  7881  200026                     	org	2097190
  7882  200026  0FFF               	dw	4095
  7883                           
  7884                           ;Config register IDLOC20 @ 0x200028
  7885                           ;	unspecified, using default values
  7886  200028                     	org	2097192
  7887  200028  0FFF               	dw	4095
  7888                           
  7889                           ;Config register IDLOC21 @ 0x20002A
  7890                           ;	unspecified, using default values
  7891  20002A                     	org	2097194
  7892  20002A  0FFF               	dw	4095
  7893                           
  7894                           ;Config register IDLOC22 @ 0x20002C
  7895                           ;	unspecified, using default values
  7896  20002C                     	org	2097196
  7897  20002C  0FFF               	dw	4095
  7898                           
  7899                           ;Config register IDLOC23 @ 0x20002E
  7900                           ;	unspecified, using default values
  7901  20002E                     	org	2097198
  7902  20002E  0FFF               	dw	4095
  7903                           
  7904                           ;Config register IDLOC24 @ 0x200030
  7905                           ;	unspecified, using default values
  7906  200030                     	org	2097200
  7907  200030  0FFF               	dw	4095
  7908                           
  7909                           ;Config register IDLOC25 @ 0x200032
  7910                           ;	unspecified, using default values
  7911  200032                     	org	2097202
  7912  200032  0FFF               	dw	4095
  7913                           
  7914                           ;Config register IDLOC26 @ 0x200034
  7915                           ;	unspecified, using default values
  7916  200034                     	org	2097204
  7917  200034  0FFF               	dw	4095
  7918                           
  7919                           ;Config register IDLOC27 @ 0x200036
  7920                           ;	unspecified, using default values
  7921  200036                     	org	2097206
  7922  200036  0FFF               	dw	4095
  7923                           
  7924                           ;Config register IDLOC28 @ 0x200038
  7925                           ;	unspecified, using default values
  7926  200038                     	org	2097208
  7927  200038  0FFF               	dw	4095
  7928                           
  7929                           ;Config register IDLOC29 @ 0x20003A
  7930                           ;	unspecified, using default values
  7931  20003A                     	org	2097210
  7932  20003A  0FFF               	dw	4095
  7933                           
  7934                           ;Config register IDLOC30 @ 0x20003C
  7935                           ;	unspecified, using default values
  7936  20003C                     	org	2097212
  7937  20003C  0FFF               	dw	4095
  7938                           
  7939                           ;Config register IDLOC31 @ 0x20003E
  7940                           ;	unspecified, using default values
  7941  20003E                     	org	2097214
  7942  20003E  0FFF               	dw	4095
  7943                           
  7944                           	psect	config
  7945                           
  7946                           ;Config register CONFIG1 @ 0x300000
  7947                           ;	External Oscillator Selection
  7948                           ;	FEXTOSC = OFF, Oscillator not enabled
  7949                           ;	Reset Oscillator Selection
  7950                           ;	RSTOSC = HFINTOSC_64MHZ, HFINTOSC with HFFRQ = 64 MHz and CDIV = 1:1
  7951  300000                     	org	3145728
  7952  300000  8C                 	db	140
  7953                           
  7954                           ;Config register CONFIG2 @ 0x300001
  7955                           ;	Clock out Enable bit
  7956                           ;	CLKOUTEN = OFF, CLKOUT function is disabled
  7957                           ;	PRLOCKED One-Way Set Enable bit
  7958                           ;	PR1WAY = OFF, PRLOCKED bit can be set and cleared repeatedly
  7959                           ;	Clock Switch Enable bit
  7960                           ;	CSWEN = ON, Writing to NOSC and NDIV is allowed
  7961                           ;	Fail-Safe Clock Monitor Enable bit
  7962                           ;	FCMEN = OFF, Fail-Safe Clock Monitor disabled
  7963                           ;	Fail-Safe Clock Monitor - Primary XTAL Enable bit
  7964                           ;	FCMENP = 0x1, unprogrammed default
  7965                           ;	Fail-Safe Clock Monitor - Secondary XTAL Enable bit
  7966                           ;	FCMENS = 0x1, unprogrammed default
  7967  300001                     	org	3145729
  7968  300001  DD                 	db	221
  7969                           
  7970                           ;Config register CONFIG3 @ 0x300002
  7971                           ;	MCLR Enable bit
  7972                           ;	MCLRE = INTMCLR, If LVP = 0, MCLR pin function is port defined function; If LVP =1, RE
      +                          3 pin fuction is MCLR
  7973                           ;	Power-up timer selection bits
  7974                           ;	PWRTS = PWRT_64, PWRT set at 64ms
  7975                           ;	Multi-vector enable bit
  7976                           ;	MVECEN = ON, Multi-vector enabled, Vector table used for interrupts
  7977                           ;	IVTLOCK bit One-way set enable bit
  7978                           ;	IVT1WAY = OFF, IVTLOCKED bit can be cleared and set repeatedly
  7979                           ;	Low Power BOR Enable bit
  7980                           ;	LPBOREN = OFF, Low-Power BOR disabled
  7981                           ;	Brown-out Reset Enable bits
  7982                           ;	BOREN = SBORDIS, Brown-out Reset enabled , SBOREN bit is ignored
  7983  300002                     	org	3145730
  7984  300002  EC                 	db	236
  7985                           
  7986                           ;Config register CONFIG4 @ 0x300003
  7987                           ;	Brown-out Reset Voltage Selection bits
  7988                           ;	BORV = VBOR_1P9, Brown-out Reset Voltage (VBOR) set to 1.9V
  7989                           ;	ZCD Disable bit
  7990                           ;	ZCD = OFF, ZCD module is disabled. ZCD can be enabled by setting the ZCDSEN bit of ZCD
      +                          CON
  7991                           ;	PPSLOCK bit One-Way Set Enable bit
  7992                           ;	PPS1WAY = OFF, PPSLOCKED bit can be set and cleared repeatedly (subject to the unlock 
      +                          sequence)
  7993                           ;	Stack Full/Underflow Reset Enable bit
  7994                           ;	STVREN = ON, Stack full/underflow will cause Reset
  7995                           ;	Low Voltage Programming Enable bit
  7996                           ;	LVP = OFF, HV on MCLR/VPP must be used for programming
  7997                           ;	Extended Instruction Set Enable bit
  7998                           ;	XINST = OFF, Extended Instruction Set and Indexed Addressing Mode disabled
  7999  300003                     	org	3145731
  8000  300003  D7                 	db	215
  8001                           
  8002                           ;Config register CONFIG5 @ 0x300004
  8003                           ;	WDT Period selection bits
  8004                           ;	WDTCPS = WDTCPS_31, Divider ratio 1:65536; software control of WDTPS
  8005                           ;	WDT operating mode
  8006                           ;	WDTE = OFF, WDT Disabled; SWDTEN is ignored
  8007  300004                     	org	3145732
  8008  300004  9F                 	db	159
  8009                           
  8010                           ;Config register CONFIG6 @ 0x300005
  8011                           ;	WDT Window Select bits
  8012                           ;	WDTCWS = WDTCWS_6, window always open (100%); no software control; keyed access requir
      +                          ed
  8013                           ;	WDT input clock selector
  8014                           ;	WDTCCS = LFINTOSC, WDT reference clock is the 31.0 kHz LFINTOSC
  8015  300005                     	org	3145733
  8016  300005  C6                 	db	198
  8017                           
  8018                           ;Config register CONFIG7 @ 0x300006
  8019                           ;	Boot Block Size selection bits
  8020                           ;	BBSIZE = BBSIZE_512, Boot Block size is 512 words
  8021                           ;	Boot Block enable bit
  8022                           ;	BBEN = OFF, Boot block disabled
  8023                           ;	Storage Area Flash enable bit
  8024                           ;	SAFEN = OFF, SAF disabled
  8025                           ;	Background Debugger
  8026                           ;	DEBUG = OFF, Background Debugger disabled
  8027  300006                     	org	3145734
  8028  300006  FF                 	db	255
  8029                           
  8030                           ;Config register CONFIG8 @ 0x300007
  8031                           ;	Boot Block Write Protection bit
  8032                           ;	WRTB = OFF, Boot Block not Write protected
  8033                           ;	Configuration Register Write Protection bit
  8034                           ;	WRTC = OFF, Configuration registers not Write protected
  8035                           ;	Data EEPROM Write Protection bit
  8036                           ;	WRTD = OFF, Data EEPROM not Write protected
  8037                           ;	SAF Write protection bit
  8038                           ;	WRTSAF = OFF, SAF not Write Protected
  8039                           ;	Application Block write protection bit
  8040                           ;	WRTAPP = OFF, Application Block not write protected
  8041  300007                     	org	3145735
  8042  300007  FF                 	db	255
  8043                           
  8044                           ;Config register CONFIG9 @ 0x300008
  8045                           ;	PFM and Data EEPROM Code Protection bit
  8046                           ;	CP = OFF, PFM and Data EEPROM code protection disabled
  8047  300008                     	org	3145736
  8048  300008  FF                 	db	255
  8049                           
  8050                           ; Padding undefined space
  8051  300009                     	org	3145737
  8052  300009  FF                 	db	255
  8053                           tosu	equ	0x4FF
  8054                           tosh	equ	0x4FE
  8055                           tosl	equ	0x4FD
  8056                           stkptr	equ	0x4FC
  8057                           pclatu	equ	0x4FB
  8058                           pclath	equ	0x4FA
  8059                           pcl	equ	0x4F9
  8060                           tblptru	equ	0x4F8
  8061                           tblptrh	equ	0x4F7
  8062                           tblptrl	equ	0x4F6
  8063                           tablat	equ	0x4F5
  8064                           prodh	equ	0x4F4
  8065                           prodl	equ	0x4F3
  8066                           indf0	equ	0x4EF
  8067                           postinc0	equ	0x4EE
  8068                           postdec0	equ	0x4ED
  8069                           preinc0	equ	0x4EC
  8070                           plusw0	equ	0x4EB
  8071                           fsr0h	equ	0x4EA
  8072                           fsr0l	equ	0x4E9
  8073                           wreg	equ	0x4E8
  8074                           indf1	equ	0x4E7
  8075                           postinc1	equ	0x4E6
  8076                           postdec1	equ	0x4E5
  8077                           preinc1	equ	0x4E4
  8078                           plusw1	equ	0x4E3
  8079                           fsr1h	equ	0x4E2
  8080                           fsr1l	equ	0x4E1
  8081                           bsr	equ	0x4E0
  8082                           indf2	equ	0x4DF
  8083                           postinc2	equ	0x4DE
  8084                           postdec2	equ	0x4DD
  8085                           preinc2	equ	0x4DC
  8086                           plusw2	equ	0x4DB
  8087                           fsr2h	equ	0x4DA
  8088                           fsr2l	equ	0x4D9
  8089                           status	equ	0x4D8

Data Sizes:
    Strings     736
    Constant    0
    Data        0
    BSS         305
    Persistent  0
    Stack       0

Auto Spaces:
    Space          Size  Autos    Used
    COMRAM           95     57      71
    BANK5           160     69     104
    BANK6           256      0     256
    BANK7           256      0       0
    BANK8           256      0       0

Pointer List with Targets:

    strlen@s	PTR const unsigned char  size(2) Largest target is 32
		 -> dbuf(BANK5[32]), 

    strlen@a	PTR const unsigned char  size(2) Largest target is 32
		 -> dbuf(BANK5[32]), 

    fputs@s	PTR const unsigned char  size(2) Largest target is 32
		 -> dbuf(BANK5[32]), 

    fputs@fp	PTR struct _IO_FILE size(2) Largest target is 0
		 -> NULL(NULL[0]), 

    S2392$source	PTR const unsigned char  size(2) Largest target is 0

    fputc@fp...source	PTR const unsigned char  size(2) Largest target is 0

    S2392$buffer	PTR unsigned char  size(2) Largest target is 0

    fputc@fp...buffer	PTR unsigned char  size(2) Largest target is 0

    fputc@fp	PTR struct _IO_FILE size(2) Largest target is 0
		 -> NULL(NULL[0]), 

    vfprintf@ap	PTR PTR void  size(2) Largest target is 2
		 -> printf@ap(BANK5[2]), 

    vfprintf@fp	PTR struct _IO_FILE size(2) Largest target is 0
		 -> NULL(NULL[0]), 

    vfprintf@fmt	PTR const unsigned char  size(2) Largest target is 30
		 -> STR_58(CODE[7]), STR_57(CODE[6]), STR_56(CODE[9]), STR_55(CODE[6]), 
		 -> STR_54(CODE[8]), STR_53(CODE[7]), STR_52(CODE[5]), STR_51(CODE[16]), 
		 -> STR_50(CODE[13]), STR_49(CODE[12]), STR_48(CODE[15]), STR_47(CODE[12]), 
		 -> STR_46(CODE[14]), STR_45(CODE[13]), STR_44(CODE[11]), STR_43(CODE[17]), 
		 -> STR_42(CODE[16]), STR_41(CODE[14]), STR_40(CODE[13]), STR_39(CODE[13]), 
		 -> STR_38(CODE[12]), STR_37(CODE[20]), STR_36(CODE[16]), STR_35(CODE[12]), 
		 -> STR_34(CODE[12]), STR_33(CODE[12]), STR_32(CODE[28]), STR_31(CODE[16]), 
		 -> STR_30(CODE[19]), STR_29(CODE[22]), STR_28(CODE[23]), STR_27(CODE[3]), 
		 -> STR_26(CODE[3]), STR_25(CODE[3]), STR_24(CODE[3]), STR_23(CODE[3]), 
		 -> STR_22(CODE[30]), STR_21(CODE[2]), STR_20(CODE[24]), STR_19(CODE[26]), 
		 -> STR_18(CODE[27]), STR_17(CODE[27]), STR_16(CODE[28]), STR_15(CODE[28]), 
		 -> STR_14(CODE[26]), STR_13(CODE[25]), STR_12(CODE[25]), STR_11(CODE[25]), 
		 -> STR_10(CODE[26]), STR_9(CODE[27]), STR_8(CODE[27]), STR_7(CODE[25]), 
		 -> STR_6(CODE[19]), STR_5(CODE[21]), STR_4(CODE[22]), STR_3(CODE[22]), 
		 -> STR_2(CODE[7]), STR_1(CODE[16]), 

    vfprintf@cfmt	PTR unsigned char  size(2) Largest target is 30
		 -> STR_58(CODE[7]), STR_57(CODE[6]), STR_56(CODE[9]), STR_55(CODE[6]), 
		 -> STR_54(CODE[8]), STR_53(CODE[7]), STR_52(CODE[5]), STR_51(CODE[16]), 
		 -> STR_50(CODE[13]), STR_49(CODE[12]), STR_48(CODE[15]), STR_47(CODE[12]), 
		 -> STR_46(CODE[14]), STR_45(CODE[13]), STR_44(CODE[11]), STR_43(CODE[17]), 
		 -> STR_42(CODE[16]), STR_41(CODE[14]), STR_40(CODE[13]), STR_39(CODE[13]), 
		 -> STR_38(CODE[12]), STR_37(CODE[20]), STR_36(CODE[16]), STR_35(CODE[12]), 
		 -> STR_34(CODE[12]), STR_33(CODE[12]), STR_32(CODE[28]), STR_31(CODE[16]), 
		 -> STR_30(CODE[19]), STR_29(CODE[22]), STR_28(CODE[23]), STR_27(CODE[3]), 
		 -> STR_26(CODE[3]), STR_25(CODE[3]), STR_24(CODE[3]), STR_23(CODE[3]), 
		 -> STR_22(CODE[30]), STR_21(CODE[2]), STR_20(CODE[24]), STR_19(CODE[26]), 
		 -> STR_18(CODE[27]), STR_17(CODE[27]), STR_16(CODE[28]), STR_15(CODE[28]), 
		 -> STR_14(CODE[26]), STR_13(CODE[25]), STR_12(CODE[25]), STR_11(CODE[25]), 
		 -> STR_10(CODE[26]), STR_9(CODE[27]), STR_8(CODE[27]), STR_7(CODE[25]), 
		 -> STR_6(CODE[19]), STR_5(CODE[21]), STR_4(CODE[22]), STR_3(CODE[22]), 
		 -> STR_2(CODE[7]), STR_1(CODE[16]), 

    vfpfcnvrt@fp	PTR struct _IO_FILE size(2) Largest target is 0
		 -> NULL(NULL[0]), 

    vfpfcnvrt@ap	PTR PTR void  size(2) Largest target is 2
		 -> printf@ap(BANK5[2]), 

    vfpfcnvrt@fmt	PTR PTR unsigned char  size(2) Largest target is 2
		 -> vfprintf@cfmt(BANK5[2]), 

    utoa@fp	PTR struct _IO_FILE size(2) Largest target is 0
		 -> NULL(NULL[0]), 

    pad@fp	PTR struct _IO_FILE size(2) Largest target is 0
		 -> NULL(NULL[0]), 

    pad@buf	PTR unsigned char  size(2) Largest target is 32
		 -> dbuf(BANK5[32]), 

    printf@fmt	PTR const unsigned char  size(2) Largest target is 30
		 -> STR_58(CODE[7]), STR_57(CODE[6]), STR_56(CODE[9]), STR_55(CODE[6]), 
		 -> STR_54(CODE[8]), STR_53(CODE[7]), STR_52(CODE[5]), STR_51(CODE[16]), 
		 -> STR_50(CODE[13]), STR_49(CODE[12]), STR_48(CODE[15]), STR_47(CODE[12]), 
		 -> STR_46(CODE[14]), STR_45(CODE[13]), STR_44(CODE[11]), STR_43(CODE[17]), 
		 -> STR_42(CODE[16]), STR_41(CODE[14]), STR_40(CODE[13]), STR_39(CODE[13]), 
		 -> STR_38(CODE[12]), STR_37(CODE[20]), STR_36(CODE[16]), STR_35(CODE[12]), 
		 -> STR_34(CODE[12]), STR_33(CODE[12]), STR_32(CODE[28]), STR_31(CODE[16]), 
		 -> STR_30(CODE[19]), STR_29(CODE[22]), STR_28(CODE[23]), STR_27(CODE[3]), 
		 -> STR_26(CODE[3]), STR_25(CODE[3]), STR_24(CODE[3]), STR_23(CODE[3]), 
		 -> STR_22(CODE[30]), STR_21(CODE[2]), STR_20(CODE[24]), STR_19(CODE[26]), 
		 -> STR_18(CODE[27]), STR_17(CODE[27]), STR_16(CODE[28]), STR_15(CODE[28]), 
		 -> STR_14(CODE[26]), STR_13(CODE[25]), STR_12(CODE[25]), STR_11(CODE[25]), 
		 -> STR_10(CODE[26]), STR_9(CODE[27]), STR_8(CODE[27]), STR_7(CODE[25]), 
		 -> STR_6(CODE[19]), STR_5(CODE[21]), STR_4(CODE[22]), STR_3(CODE[22]), 
		 -> STR_2(CODE[7]), STR_1(CODE[16]), 

    printf@ap	PTR void [1] size(2) Largest target is 2
		 -> ?_printf(BANK5[2]), 


Critical Paths under _main in COMRAM

    _main->_text_colour
    _uart1_init->_putch
    _system_init->_interrupt_init
    _reset_init->_clock_set
    _print_title->_text_colour
    _load_settings->_save_settings
    _bios_menu_colour->_text_colour
    _save_settings->_dfm_write
    _getch->_putch
    _clear_screen->_text_colour
    _vfprintf->_vfpfcnvrt
    _utoa->_pad
    _pad->_fputs
    _fputs->_fputc
    _fputc->_putch

Critical Paths under _UART1_framing_err_vect_isr in COMRAM

    None.

Critical Paths under _INT0_vect_isr in COMRAM

    None.

Critical Paths under _UART1_rx_vect_isr in COMRAM

    _UART1_rx_vect_isr->_toupper
    _toupper->_islower

Critical Paths under _CLC1_vect_isr in COMRAM

    _CLC1_vect_isr->i2_getch
    i2_getch->i2_putch

Critical Paths under _main in BANK5

    _main->_bios_menu
    _print_title->_printf
    _bios_menu->_bios_menu_top
    _bios_waiting->_printf
    _bios_menu_top->_bios_menu_colour
    _bios_menu_speed->_printf
    _bios_menu_colour->_menu_print_colour
    _menu_print_colour->_printf
    _bios_menu_baud->_printf
    _clear_screen->_printf
    _text_colour->_printf
    _printf->_vfprintf
    _vfprintf->_vfpfcnvrt
    _vfpfcnvrt->_utoa

Critical Paths under _UART1_framing_err_vect_isr in BANK5

    None.

Critical Paths under _INT0_vect_isr in BANK5

    None.

Critical Paths under _UART1_rx_vect_isr in BANK5

    None.

Critical Paths under _CLC1_vect_isr in BANK5

    None.

Critical Paths under _main in BANK6

    None.

Critical Paths under _UART1_framing_err_vect_isr in BANK6

    None.

Critical Paths under _INT0_vect_isr in BANK6

    None.

Critical Paths under _UART1_rx_vect_isr in BANK6

    None.

Critical Paths under _CLC1_vect_isr in BANK6

    None.

Critical Paths under _main in BANK7

    None.

Critical Paths under _UART1_framing_err_vect_isr in BANK7

    None.

Critical Paths under _INT0_vect_isr in BANK7

    None.

Critical Paths under _UART1_rx_vect_isr in BANK7

    None.

Critical Paths under _CLC1_vect_isr in BANK7

    None.

Critical Paths under _main in BANK8

    None.

Critical Paths under _UART1_framing_err_vect_isr in BANK8

    None.

Critical Paths under _INT0_vect_isr in BANK8

    None.

Critical Paths under _UART1_rx_vect_isr in BANK8

    None.

Critical Paths under _CLC1_vect_isr in BANK8

    None.

Call Graph Tables:

 ---------------------------------------------------------------------------------
 (Depth) Function   	        Calls       Base Space   Used Autos Params    Refs
 ---------------------------------------------------------------------------------
 (0) _main                                                 2     2      0  225909
                                             67 BANK5      2     2      0
                          _bios_menu
                          _clc1_init
                          _clc2_init
                         _clock_init
                      _load_settings
                        _print_title
                              _putch
                         _reset_init
                        _system_init
                        _text_colour
                         _uart1_init
 ---------------------------------------------------------------------------------
 (1) _uart1_init                                           4     2      2     120
                                             25 COMRAM     4     2      2
                              _putch
 ---------------------------------------------------------------------------------
 (1) _system_init                                          0     0      0      15
                     _interrupt_init
                    _oscillator_init
            _peripheral_disable_init
                           _pin_init
 ---------------------------------------------------------------------------------
 (2) _pin_init                                             0     0      0       0
 ---------------------------------------------------------------------------------
 (2) _peripheral_disable_init                              0     0      0       0
 ---------------------------------------------------------------------------------
 (2) _oscillator_init                                      0     0      0       0
 ---------------------------------------------------------------------------------
 (2) _interrupt_init                                       1     1      0      15
                                             24 COMRAM     1     1      0
 ---------------------------------------------------------------------------------
 (1) _reset_init                                           1     1      0      30
                                             27 COMRAM     1     1      0
                          _clock_set
 ---------------------------------------------------------------------------------
 (2) _clock_set                                            3     3      0      30
                                             24 COMRAM     3     3      0
 ---------------------------------------------------------------------------------
 (1) _print_title                                          3     3      0   44972
                                             62 BANK5      2     2      0
                            ___lbdiv
                            ___lbmod
                       _clear_screen
                             _printf
                        _text_colour
 ---------------------------------------------------------------------------------
 (2) ___lbmod                                              4     3      1     235
                                             24 COMRAM     4     3      1
 ---------------------------------------------------------------------------------
 (2) ___lbdiv                                              4     3      1     238
                                             24 COMRAM     4     3      1
 ---------------------------------------------------------------------------------
 (1) _load_settings                                        1     1      0     745
                                             34 COMRAM     1     1      0
                           _dfm_read
                      _save_settings
 ---------------------------------------------------------------------------------
 (1) _clock_init                                           0     0      0       0
 ---------------------------------------------------------------------------------
 (1) _clc2_init                                            0     0      0       0
 ---------------------------------------------------------------------------------
 (1) _clc1_init                                            0     0      0       0
 ---------------------------------------------------------------------------------
 (1) _bios_menu                                            1     1      0  168881
                                             66 BANK5      1     1      0
                      _bios_menu_top
                       _bios_waiting
                              _getch
                              _kbhit
 ---------------------------------------------------------------------------------
 (2) _bios_waiting                                         2     2      0   11093
                                             62 BANK5      2     2      0
                             _printf
 ---------------------------------------------------------------------------------
 (2) _bios_menu_top                                        1     1      0  157732
                                             65 BANK5      1     1      0
                     _bios_menu_baud
                   _bios_menu_colour
                    _bios_menu_speed
                       _clear_screen
                              _getch
                              _kbhit
                             _printf
 ---------------------------------------------------------------------------------
 (3) _bios_menu_speed                                      1     1      0   33966
                                             62 BANK5      1     1      0
                       _clear_screen
                              _getch
                              _kbhit
                             _printf
                      _save_settings
 ---------------------------------------------------------------------------------
 (3) _bios_menu_colour                                     1     1      0   56307
                                             64 BANK5      1     1      0
                       _clear_screen
                              _getch
                              _kbhit
                  _menu_print_colour
                             _printf
                      _save_settings
                        _text_colour
 ---------------------------------------------------------------------------------
 (4) _menu_print_colour                                    2     2      0   11093
                                             62 BANK5      2     2      0
                             _printf
 ---------------------------------------------------------------------------------
 (3) _bios_menu_baud                                       1     1      0   33997
                                             62 BANK5      1     1      0
                       _clear_screen
                              _getch
                              _kbhit
                             _printf
                      _save_settings
 ---------------------------------------------------------------------------------
 (2) _save_settings                                        3     3      0     504
                                             31 COMRAM     3     3      0
                           _dfm_read
                          _dfm_write
 ---------------------------------------------------------------------------------
 (3) _dfm_write                                            7     4      3     219
                                             24 COMRAM     7     4      3
 ---------------------------------------------------------------------------------
 (3) _dfm_read                                             5     3      2     174
                                             24 COMRAM     5     3      2
 ---------------------------------------------------------------------------------
 (2) _kbhit                                                0     0      0       0
 ---------------------------------------------------------------------------------
 (2) _getch                                                2     2      0      22
                                             25 COMRAM     2     2      0
                              _putch
 ---------------------------------------------------------------------------------
 (2) _clear_screen                                         0     0      0   22217
                             _printf
                        _text_colour
 ---------------------------------------------------------------------------------
 (1) _text_colour                                          1     1      0   11124
                                             56 COMRAM     1     1      0
                             _printf
 ---------------------------------------------------------------------------------
 (2) _printf                                              10     4      6   11093
                                             54 BANK5      8     2      6
                            ___lbdiv (ARG)
                            ___lbmod (ARG)
                           _vfprintf
 ---------------------------------------------------------------------------------
 (3) _vfprintf                                             8     2      6    5792
                                             46 BANK5      8     2      6
                          _vfpfcnvrt
 ---------------------------------------------------------------------------------
 (4) _vfpfcnvrt                                           44    38      6    5322
                                             52 COMRAM     4     4      0
                                             32 BANK5     14     8      6
                              _fputc
                               _utoa
 ---------------------------------------------------------------------------------
 (5) _utoa                                                32    22     10    3825
                                              0 BANK5     32    22     10
                            ___lodiv
                            ___lomod
                                _pad
 ---------------------------------------------------------------------------------
 (6) _pad                                                 11     5      6    2621
                                             41 COMRAM    11     5      6
                              _fputc
                              _fputs
                             _strlen
 ---------------------------------------------------------------------------------
 (7) _strlen                                               4     2      2     166
                                             24 COMRAM     4     2      2
 ---------------------------------------------------------------------------------
 (7) _fputs                                                7     3      4    1191
                                             34 COMRAM     7     3      4
                              _fputc
 ---------------------------------------------------------------------------------
 (8) _fputc                                                9     5      4     790
                                             25 COMRAM     9     5      4
                              _putch
 ---------------------------------------------------------------------------------
 (2) _putch                                                1     1      0      22
                                             24 COMRAM     1     1      0
 ---------------------------------------------------------------------------------
 (6) ___lomod                                             17     1     16     311
                                             24 COMRAM    17     1     16
 ---------------------------------------------------------------------------------
 (6) ___lodiv                                             25     9     16     314
                                             24 COMRAM    25     9     16
 ---------------------------------------------------------------------------------
 Estimated maximum stack depth 8
 ---------------------------------------------------------------------------------
 (Depth) Function   	        Calls       Base Space   Used Autos Params    Refs
 ---------------------------------------------------------------------------------
 (14) _UART1_framing_err_vect_isr                          1     1      0       0
                                             23 COMRAM     1     1      0
 ---------------------------------------------------------------------------------
 Estimated maximum stack depth 14
 ---------------------------------------------------------------------------------
 (Depth) Function   	        Calls       Base Space   Used Autos Params    Refs
 ---------------------------------------------------------------------------------
 (14) _INT0_vect_isr                                       0     0      0       0
 ---------------------------------------------------------------------------------
 Estimated maximum stack depth 14
 ---------------------------------------------------------------------------------
 (Depth) Function   	        Calls       Base Space   Used Autos Params    Refs
 ---------------------------------------------------------------------------------
 (15) _UART1_rx_vect_isr                                   0     0      0     410
                            _toupper
                            i2_putch
 ---------------------------------------------------------------------------------
 (17) i2_putch                                             1     1      0      22
                                             12 COMRAM     1     1      0
 ---------------------------------------------------------------------------------
 (16) _toupper                                             6     4      2     388
                                              6 COMRAM     6     4      2
                            _islower
 ---------------------------------------------------------------------------------
 (17) _islower                                             6     4      2     161
                                              0 COMRAM     6     4      2
 ---------------------------------------------------------------------------------
 Estimated maximum stack depth 17
 ---------------------------------------------------------------------------------
 (Depth) Function   	        Calls       Base Space   Used Autos Params    Refs
 ---------------------------------------------------------------------------------
 (15) _CLC1_vect_isr                                       8     8      0      94
                                             15 COMRAM     8     8      0
                            i2_getch
                            i2_kbhit
 ---------------------------------------------------------------------------------
 (16) i2_kbhit                                             0     0      0       0
 ---------------------------------------------------------------------------------
 (16) i2_getch                                             2     2      0      22
                                             13 COMRAM     2     2      0
                            i2_putch
 ---------------------------------------------------------------------------------
 (17) i2_putch                                             1     1      0      22
                                             12 COMRAM     1     1      0
 ---------------------------------------------------------------------------------
 Estimated maximum stack depth 17
 ---------------------------------------------------------------------------------

 Call Graph Graphs:

 _main (ROOT)
   _bios_menu
     _bios_menu_top
       _bios_menu_baud
         _clear_screen
           _printf
             ___lbdiv (ARG)
             ___lbmod (ARG)
             _vfprintf (ARG)
               _vfpfcnvrt
                 _fputc
                   _putch
                 _utoa
                   ___lodiv
                   ___lomod
                   _pad
                     _fputc
                     _fputs
                       _fputc
                     _strlen
           _text_colour
             _printf
         _getch
           _putch
         _kbhit
         _printf
         _save_settings
           _dfm_read
           _dfm_write
       _bios_menu_colour
         _clear_screen
         _getch
         _kbhit
         _menu_print_colour
           _printf
         _printf
         _save_settings
         _text_colour
       _bios_menu_speed
         _clear_screen
         _getch
         _kbhit
         _printf
         _save_settings
       _clear_screen
       _getch
       _kbhit
       _printf
     _bios_waiting
       _printf
     _getch
     _kbhit
   _clc1_init
   _clc2_init
   _clock_init
   _load_settings
     _dfm_read
     _save_settings
   _print_title
     ___lbdiv
     ___lbmod
     _clear_screen
     _printf
     _text_colour
   _putch
   _reset_init
     _clock_set
   _system_init
     _interrupt_init
     _oscillator_init
     _peripheral_disable_init
     _pin_init
   _text_colour
   _uart1_init
     _putch

 _UART1_framing_err_vect_isr (ROOT)

 _INT0_vect_isr (ROOT)

 _UART1_rx_vect_isr (ROOT)
   _toupper
     _islower
   i2_putch

 _CLC1_vect_isr (ROOT)
   i2_getch
     i2_putch
   i2_kbhit

 Address spaces:
Name               Size   Autos  Total    Cost      Usage
BIGRAM             3FF      0       0      12        0.0%
EEDATA             200      0       0       0        0.0%
BITBIGSFRlllhhl    121      0       0      37        0.0%
BITBIGSFR_1        100      0       0      11        0.0%
BITBANK8           100      0       0       9        0.0%
BANK8              100      0       0      10        0.0%
BITBANK7           100      0       0       7        0.0%
BANK7              100      0       0       8        0.0%
BITBANK6           100      0       0       5        0.0%
BANK6              100      0     100       6      100.0%
BITBIGSFRlllhhl     B3      0       0      29        0.0%
BITBANK5            A0      0       0       3        0.0%
BANK5               A0     45      68       4       65.0%
BITBIGSFRlllhhl     93      0       0      27        0.0%
BITCOMRAM           5F      0       0       0        0.0%
COMRAM              5F     39      47       1       74.7%
BITBIGSFRlllhhl     48      0       0      22        0.0%
BITBIGSFRlllhhl     44      0       0      24        0.0%
BITBIGSFRlllhhl     3D      0       0      41        0.0%
BITBIGSFRllllll     39      0       0      45        0.0%
BITBIGSFRlllhhl     38      0       0      35        0.0%
BITBIGSFRlllhhl     2E      0       0      32        0.0%
BITBIGSFRh          29      0       0      13        0.0%
BITBIGSFRlllhhl     22      0       0      34        0.0%
BITBIGSFRlllhhl     21      0       0      38        0.0%
BITBIGSFRlllhll     1C      0       0      43        0.0%
BITBIGSFRlllhhl      F      0       0      33        0.0%
BITBIGSFRlllhhl      7      0       0      30        0.0%
BITBIGSFRllhlh       5      0       0      16        0.0%
BITBIGSFRlllhhh      5      0       0      18        0.0%
BITBIGSFRlllllh      5      0       0      44        0.0%
BITBIGSFRllhh        5      0       0      15        0.0%
BITBIGSFRlllhhh      5      0       0      20        0.0%
BITBIGSFRlh          5      0       0      14        0.0%
BITBIGSFRlllhhl      3      0       0      23        0.0%
BITBIGSFRlllhhh      3      0       0      19        0.0%
BITBIGSFRlllhhl      3      0       0      25        0.0%
BITBIGSFRlllhhl      3      0       0      26        0.0%
BITBIGSFRlllhhl      3      0       0      36        0.0%
BITBIGSFRlllhhl      2      0       0      21        0.0%
BITBIGSFRlllhhl      2      0       0      28        0.0%
BITBIGSFRlllhhl      1      0       0      39        0.0%
BITBIGSFRlllhhl      1      0       0      40        0.0%
BITBIGSFRlllhhl      1      0       0      31        0.0%
BITBIGSFRlllhhl      1      0       0      42        0.0%
BITBIGSFRllhll       1      0       0      17        0.0%
BIGSFR_1             0      0       0     200        0.0%
BIGSFR               0      0       0     200        0.0%
BITSFR_6             0      0       0     200        0.0%
SFR_6                0      0       0     200        0.0%
BITSFR_5             0      0       0     200        0.0%
SFR_5                0      0       0     200        0.0%
BITSFR_4             0      0       0     200        0.0%
SFR_4                0      0       0     200        0.0%
BITSFR_3             0      0       0     200        0.0%
SFR_3                0      0       0     200        0.0%
BITSFR_2             0      0       0     200        0.0%
SFR_2                0      0       0     200        0.0%
BITSFR_1             0      0       0     200        0.0%
SFR_1                0      0       0     200        0.0%
BITSFR               0      0       0     200        0.0%
SFR                  0      0       0     200        0.0%
STACK                0      0       0       2        0.0%
NULL                 0      0       0       0        0.0%
ABS                  0      0     1AF      46        0.0%
DATA                 0      0     1AF      47        0.0%
CODE                 0      0       0       0        0.0%


Microchip Technology PIC18 Macro Assembler V2.36 build 20220127204148 
Symbol Table                                                                                   Fri Jan 13 15:06:49 2023

               __end_of_system_init 146C              __end_of_interrupt_init 1130  
                               l201 1008                                 l442 0FC4  
                               l195 1384                                 l446 0FC0  
                               l983 0714                                 l993 0944  
                               _GIE 0026B7                                 u635 112C  
                               u636 112E                                 u930 0E66  
                               u950 0EAE                                 u981 066E  
                               _pad 0AB2                                 wreg 0004E8  
                              l1260 00E2                                l1248 0AE0  
                              l1258 00DA                                l2511 092E  
                              l2503 08D2                                l2505 08E6  
                              l2441 146E                                l3321 0360  
                              l2451 0E6E                                l2523 0AD8  
                              l3331 03B0                                l3403 0C52  
                              l2461 1174                                l2533 0B2E  
                              l2525 0AEA                                l3413 0804  
                              l2471 1314                                l2519 0ACA  
                              l3327 03A4                                l3351 0F54  
                              l3431 089A                                l3423 087A  
                              l3415 0858                                l3407 0C5E  
                              l3503 0B4A                                l2465 118A  
                              l2529 0B02                                l3281 0118  
                              l3337 03CC                                l3441 0550  
                              l3505 0B58                                l2483 068E  
                              l3291 0204                                l3427 088A  
                              l3435 08AA                                l3371 0A3E  
                              l3451 0612                                l3443 05F4  
                              l3507 0B66                                l3515 0B86  
                              l1691 0F82                                l2485 06A2  
                              l2469 1310                                l3349 0F2E  
                              l3373 0A4C                                l3365 0A14  
                              l3381 0A76                                l3509 0B74  
                              l3517 0BB2                                l2901 1070  
                              l1693 0F8A                                l2495 06FE  
                              l3375 0A5A                                l3367 0A22  
                              l3471 064E                                l3463 0636  
                              l3455 061E                                l3391 0C28  
                              l2903 1088                                l1695 0F92  
                              l2681 1026                                l3377 0A68  
                              l3369 0A30                                l3481 0C74  
                              l3617 0F18                                l2675 125E  
                              l3467 0642                                l3459 062A  
                              l3475 065A                                l3483 0CA8  
                              l1699 0F9C                                l2931 077E  
                              l2669 124E                                l2685 1060  
                              l3389 0BE2                                l3741 07B6  
                              l2925 0766                                ?_pad 052A  
                              l3399 0C46                                l3591 12F8  
                              l3583 12DE                                l2855 1142  
                              l2871 1166                                l3743 07C0  
                              l2927 076E                                l2935 0788  
                              l3593 12FC                                l2929 0776  
                              l2937 07CA                                l3499 0CDC  
                              l2867 115E                                l2859 1148  
                              l3739 07A6                                l2885 13AE  
                              l2877 1396                                STR_1 3F27  
                              STR_2 3FE9                                STR_3 3E8B  
                              STR_4 3EA1                                STR_5 3EB7  
                              STR_6 3EF3                                STR_7 3E14  
                              STR_8 3D90                                STR_9 3DAB  
                              u1000 06A6                                u1030 08EA  
                              u1225 1016                                u1226 1018  
                              u2207 0BBE                                _LATC 0004C0  
                              u1530 114C                                u2177 0EF2  
                              u2187 133E                                u1820 022E  
                              u1821 022C                                u2197 1354  
                              u1830 023C                                u1840 0240  
                              u1790 00D0                                _PMD1 000064  
                              _PMD2 000065                                _PMD3 000066  
                              _PMD4 000067                                _PMD5 000068  
                              _WPUA 000401                                _WPUB 000409  
                              _WPUC 000411                                _dbuf 05A8  
                              _main 0EC2                     _bios_menu_speed 0BDC  
                              _prec 0541                                _nout 05A5  
                              pad@i 0531                                pad@p 052E  
                              fsr1h 0004E2                                fsr2h 0004DA  
                              indf2 0004DF                                fsr1l 0004E1  
                              pad@w 0533                                fsr2l 0004D9  
                              _utoa 00BE                                start 00BA  
                   __end_ofi2_getch 12A8                     __end_ofi2_kbhit 149C  
                   __end_ofi2_putch 148C                   _UART1_rx_vect_isr 1210  
                      ___param_bank 000000                  ?_UART1_rx_vect_isr 0501  
                             ??_pad 0530           ??_peripheral_disable_init 0519  
                             ?_main 0501                     __end_of___lbdiv 116A  
                             STR_10 3DE0                               STR_11 3E2D  
                             STR_12 3E2D                               STR_20 3E46  
                             STR_21 3F52                               STR_13 3E2D  
                             STR_30 3EE0                               STR_14 3DFA  
                             STR_22 3D1F                               STR_23 3FFC  
                             STR_31 3F17                               STR_15 3D59  
                             STR_16 3D59                               STR_24 3FF6  
                             STR_40 3F6F                               STR_32 3D3D  
                             STR_17 3D90                               STR_25 3FF3  
                             STR_33 3FBA                               STR_41 3F46  
                             STR_42 3F17                               STR_26 3FF9  
                             STR_34 3FC6                               STR_50 3F7C  
                             STR_18 3D75                               STR_51 3F17  
                             STR_27 3FF0                               STR_35 3FD2  
                             STR_43 3F06                               STR_19 3DC6  
                             STR_52 3FE4                               STR_36 3F17  
                             STR_44 3FDE                               STR_28 3E5E  
                             STR_53 3F8F                               STR_45 3F89  
                             STR_37 3ECC                               STR_29 3E75  
                             STR_54 3F5A                               STR_38 3F96  
                             STR_46 3F54                               STR_55 3FA8  
                             STR_47 3FA2                               STR_39 3F62  
                             STR_56 3F3D                               STR_48 3F37  
                             STR_57 3FB4                               STR_49 3FAE  
                             STR_58 3F82                     __end_of___lbmod 13B6  
                   ?_interrupt_init 0501                               ?_utoa 0560  
                   __end_of___lodiv 0736                     __end_of___lomod 0966  
                             _U1UIR 0002B1                               _U1RXB 0002A1  
                             _U1TXB 0002A3                               i2l515 09EA  
                             i2l516 0992                               i2l534 0A02  
                             i2l535 0A00                 ??_UART1_rx_vect_isr 050D  
                             _OSCEN 0000B3                        vfpfcnvrt@fmt 0582  
                      vfpfcnvrt@llu 0586                               _PORTC 0004D0  
                             _TRISC 0004C8                __end_of_clear_screen 145A  
           __end_of_oscillator_init 1414                    _bios_menu_colour 054A  
                             _flags 0543                               _getch 1244  
                             _kbhit 1494                               _eprom 053A  
                             _fputc 0E56                               _fputs 116A  
      ??_UART1_framing_err_vect_isr 0518                               pad@fp 052A  
                             _width 053F                               _putch 146C  
                   __end_of_islower 12D8                               tablat 0004F5  
                             utoa@d 0562                               utoa@i 057E  
                             utoa@n 0576                               utoa@p 0572  
                             utoa@w 0574                               status 0004D8  
                   __end_of_toupper 11DA                     ___lbdiv@divisor 0519  
                  ___lodiv@dividend 0519                     ___lbdiv@counter 051B  
         __end_of_UART1_rx_vect_isr 1244                        text_colour@c 0539  
                   __initialization 10B2                         _system_init 145A  
                      __end_of_main 0F1C                        __end_of_utoa 026A  
                     _INT0_vect_isr 148C                              ??_main 05A3  
              __end_of_bios_waiting 0BDC                              ??_utoa 056A  
                     __activetblptr 000002                    ___lodiv@quotient 0529  
           __end_of_bios_menu_speed 0C6C                              ?_getch 0501  
                            ?_kbhit 0501                              ?_fputc 051A  
                            _ACTCON 0000AC                              ?_fputs 0523  
                            _ANSELA 000400                              ?_putch 0501  
                            _ANSELB 000408                              _ANSELC 000410  
                   bios_menu_baud@m 059E                              _U1CON0 0002AB  
                            _U1CON1 0002AC                              _U1CON2 0002AD  
                            _U1BRGH 0002AF                              _U1FIFO 0002B0  
                            _U1BRGL 0002AE                              _RA0PPS 000201  
                            _RA4PPS 000205                              _ODCONA 000402  
                            _ODCONB 00040A                              _ODCONC 000412  
                            i2l1311 11D0                           ??i2_getch 050E  
                            i2l3111 0982                              i2l3123 09B8  
                            i2l3131 09E4                              i2l3061 1290  
                            i2l3055 1280                              i2l3127 09CC  
                            i2l3119 09A8                              i2l3129 09DE  
                         ??i2_kbhit 050D                              i2l3099 123E  
                            _INLVLA 000404                              _INLVLB 00040C  
                            _INLVLC 000414                              i2l2895 147E  
                            _OSCFRQ 0000B1                              _NVMADR 000043  
   __end_of_peripheral_disable_init 13F8                           ??i2_putch 050D  
             __end_of_save_settings 106A                    __end_of_dfm_read 138C  
                      vfprintf@cfmt 0594                           ??___lbdiv 051A  
                         ??___lbmod 051A                      ?_INT0_vect_isr 0501  
                         ??___lodiv 0529                           ??___lomod 0529  
                            _buffer 0600                              clear_0 10BA  
                            clear_1 10CC                              clear_2 10D8  
                            isa$std 000001                              _printf 13B6  
                            pad@buf 052C                              _strlen 1306  
                  __end_of_pin_init 0E56                              fputc@c 051A  
                            fputs@c 0527                              fputs@i 0528  
                            fputs@s 0523                           ??_islower 0503  
                      __mediumconst 3D1E                              tblptrh 0004F7  
                            tblptrl 0004F6                              tblptru 0004F8  
                  ?_oscillator_init 0501                              putch@b 0519  
                  __end_of_vfprintf 0F74                   _menu_print_colour 0A12  
                            utoa@fp 0560                           ??_toupper 0509  
                  ___lbdiv@dividend 051A                  ?_menu_print_colour 0501  
                   ___lbmod@divisor 0519                          __accesstop 0560  
           __end_of__initialization 10EC                     ___lbmod@counter 051B  
                      ?_print_title 0501                       ___rparam_used 000001  
               ??_menu_print_colour 059E                        ?_text_colour 0501  
                    __pcstackCOMRAM 0501                       __end_of_getch 1276  
                     __end_of_kbhit 1498                      ivt0x8_undefint 00B8  
                     __end_of_fputc 0EC2                       __end_of_fputs 11A2  
                     __end_of_putch 147C                    ___lbdiv@quotient 051C  
             __end_of_bios_menu_top 0CEA           __end_of_menu_print_colour 0AB2  
                     _load_settings 106A  __end_of_UART1_framing_err_vect_isr 1444  
        _UART1_framing_err_vect_isr 142C                             ??_getch 051A  
                           ??_kbhit 0519                    ?_bios_menu_speed 0501  
                           ??_fputc 051E                             ??_fputs 0527  
                           ??_putch 0519                          __pbssBANK5 05A5  
                        __pbssBANK6 0600                             IVTBASEH 00045E  
                           IVTBASEL 00045D                             IVTBASEU 00045F  
                   ??_INT0_vect_isr 0519                        _CLCnGLS0bits 0000DC  
                      _CLCnGLS1bits 0000DD                        _CLCnGLS2bits 0000DE  
                      _clear_screen 1444                        _CLCnGLS3bits 0000DF  
          __end_of_bios_menu_colour 0668                    ??_interrupt_init 0519  
                      _CLCnSEL0bits 0000D8                        _CLCnSEL1bits 0000D9  
                      _CLCnSEL2bits 0000DA                        _CLCnSEL3bits 0000DB  
                           ?_printf 0596                             _CLKRCLK 00003A  
                        _clock_init 11DA                             ?_strlen 0519  
                 __end_of_clc1_init 0DE0                             _U1ERRIE 0002B3  
                 __end_of_clc2_init 0D66                             _U1ERRIR 0002B2  
                           _INT0PPS 00023E                      ?_load_settings 0501  
                           _U1RXPPS 000272                          _buff_count 0545  
                           _OSCCON1 0000AD                             _OSCCON3 0000AF  
                         ?_dfm_read 0519                             _IVTLOCK 000459  
                           _OSCTUNE 0000B0                             _NVMDATL 000046  
                           _NVMLOCK 000042                             _SLRCONA 000403  
                           _SLRCONB 00040B                             _SLRCONC 000413  
                       uart1_init@b 051A                    bios_menu_speed@m 059E  
                  ___lomod@dividend 0519                             i2_getch 1276  
                           i2_kbhit 1498                             i2_putch 147C  
                      _bios_waiting 0B48                   __end_of_dfm_write 1020  
                     _CLC1_vect_isr 0968                   __end_of_bios_menu 1306  
                         ?_pin_init 0501                           _CLCIN0PPS 000261  
                         _CLCIN1PPS 000262                             __Hparam 0000  
                 __end_of_clock_set 0FCA                             __Lparam 0000  
                      ?_system_init 0501                             ___lbdiv 1130  
                           ___lbmod 138C                             ___lodiv 0668  
                           ___lomod 08B8                           ?_vfprintf 058E  
                           __pcinit 10B2                             __ramtop 0900  
                           __ptext0 0EC2                             __ptext1 0736  
                           __ptext2 145A                             __ptext3 0DE0  
                           __ptext4 13DC                             __ptext5 13F8  
                           __ptext6 10F6                             __ptext7 1334  
                           __ptext8 0F74                             __ptext9 0408  
                           _buff_in 0547                       _CLCSELECTbits 0000D5  
                           _islower 12A8                          ??_dfm_read 051B  
                           _toupper 11A2                end_of_initialization 10EC  
                           fputc@fp 051C                          _uart1_init 0736  
                     __Lmediumconst 3D1E                             fputs@fp 0525  
                    ?_CLC1_vect_isr 0501                          ??_pin_init 0519  
                        _reset_init 1334                   __end_of_vfpfcnvrt 0408  
                           postdec1 0004E5                             postdec2 0004DD  
                           postinc0 0004EE                             postinc1 0004E6  
                           postinc2 0004DE                          bios_menu@w 05A2  
          ?_peripheral_disable_init 0501                          ??_vfprintf 0539  
                           strlen@a 051B                             strlen@s 0519  
                   ??_load_settings 0523                           _PORTAbits 0004CE  
                       ?_clock_init 0501                           _PORTBbits 0004CF  
                        clock_set@f 051B                    ___lbmod@dividend 051A  
                         _TRISAbits 0004C6                           _TRISBbits 0004C7  
                _CLC1_vect_isr$1950 0516                  _CLC1_vect_isr$1948 0512  
                _CLC1_vect_isr$1949 0514                         ___lbmod@rem 051C  
                    _bios_menu_baud 07FE                         vfpfcnvrt@ap 0584  
                       vfpfcnvrt@fp 0580                      __end_of_printf 13DC  
                    __end_of_strlen 1334                 start_initialization 10B2  
                   ___lodiv@divisor 0521                     ___lodiv@counter 0531  
                       __end_of_pad 0B48         ?_UART1_framing_err_vect_isr 0501  
                        ivt0x8_base 0008                     ??_CLC1_vect_isr 0510  
            __end_of_bios_menu_baud 08B8                         ?_uart1_init 051A  
                    bios_menu_top@m 05A1                         ?_reset_init 0501  
                       vfprintf@fmt 0590                         _MD1CARHbits 00006E  
                       _MD1CARLbits 00006D                   ?_bios_menu_colour 0501  
                       _MD1CON0bits 00006A                         _MD1CON1bits 00006B  
                ??_bios_menu_colour 053A                            ??_printf 0539  
                          ??_strlen 051B                         __pbssCOMRAM 053A  
                     __pcstackBANK5 0560                           _clc1_init 0D66  
                         _clc2_init 0CEA                         _CLKRCONbits 000039  
                          ?i2_getch 0501                            ?i2_kbhit 0501  
                   ?_bios_menu_baud 0501                            ?i2_putch 0501  
                     _save_settings 1020                           _dfm_write 0FCA  
                       _CLCnCONbits 0000D6                       __pmediumconst 3D1E  
                         _bios_menu 12D8                            ?___lbdiv 0519  
                          ?___lbmod 0519               __end_of_INT0_vect_isr 1494  
                          ?___lodiv 0519                            ?___lomod 0519  
                         _clock_set 0F74                         _CLCnPOLbits 0000D7  
                   ___lomod@divisor 0521                     ___lomod@counter 0529  
                          ?_islower 0501                          ?_clc1_init 0501  
                        ?_clc2_init 0501                            ?_toupper 0507  
                       _U1ERRIRbits 0002B2                    save_settings@adr 0522  
                          _LATAbits 0004BE                      ?_save_settings 0501  
                          _IPR0bits 000367                            _IPR1bits 000368  
                          _PIE0bits 0004A8                            _PIE1bits 0004A9  
                          _IPR4bits 00036B                            _IPR5bits 00036C  
                          _PIE4bits 0004AC                            _PIE5bits 0004AD  
                 bios_menu_colour@m 05A0                            _IVTBASEH 00045E  
                          _IVTBASEL 00045D                            _PMD0bits 000063  
                          _IVTBASEU 00045F                            _PMD2bits 000065  
                          _PMD3bits 000066                            _PMD4bits 000067  
                          i2u156_40 12D0                            i2u157_40 12D2  
                          _PIR0bits 0004B3                            _PIR1bits 0004B4  
                          _PIR5bits 0004B8                          ?_dfm_write 0519  
                        ?_bios_menu 0501                   ??_oscillator_init 0519  
                        ?_clock_set 0501                           _vfpfcnvrt 026A  
                      ??_clock_init 0519                            _WPUAbits 000401  
                     _bios_menu_top 0C6C                         _INTCON0bits 0004D6  
                     ??_print_title 059E                            i2putch@b 050D  
                __end_of_clock_init 120E                            __Hrparam 0000  
                     ??_text_colour 0539                          vfprintf@ap 0592  
                          __Lrparam 0000                          vfprintf@fp 058E  
                 ??_bios_menu_speed 053A                          ?_vfpfcnvrt 0580  
                     bios_waiting@i 05A7               __end_of_load_settings 10B2  
                    ?_bios_menu_top 0501                          _MD1SRCbits 00006C  
                          _dfm_read 1360                            __pivt0x8 0008  
                       ??_clc1_init 0519                         ??_clc2_init 0519  
                          __ptext10 138C                            __ptext11 1130  
                          __ptext20 054A                            __ptext12 106A  
                          __ptext21 0A12                            __ptext13 11DA  
                          __ptext30 13B6                            __ptext22 07FE  
                          __ptext14 0CEA                            __ptext31 0F1C  
                          __ptext23 1020                            __ptext15 0D66  
                          __ptext40 0668                            __ptext32 026A  
                          __ptext24 0FCA                            __ptext16 12D8  
                          __ptext41 142C                            __ptext33 00BE  
                          __ptext25 1360                            __ptext17 0B48  
                          __ptext42 148C                            __ptext34 0AB2  
                          __ptext26 1494                            __ptext18 0C6C  
                          __ptext43 1210                            __ptext35 1306  
                          __ptext27 1244                            __ptext19 0BDC  
                          __ptext44 147C                            __ptext36 116A  
                          __ptext28 1444                            __ptext45 11A2  
                          __ptext37 0E56                            __ptext29 1414  
                          __ptext46 12A8                            __ptext38 146C  
                          __ptext47 0968                            __ptext39 08B8  
                          __ptext48 1498                            __ptext49 1276  
                      dfm_write@adr 0519                        dfm_write@dat 051B  
                          _buff_out 0546                          _U1CON0bits 0002AB  
                        _U1CON1bits 0002AC                          _U1CON2bits 0002AD  
                        _U1FIFObits 0002B0                     ??_save_settings 0520  
                      ??_uart1_init 051C                 interrupt_init@state 0519  
                          _pin_init 0DE0                         _IVTLOCKbits 000459  
                      ??_reset_init 051C                       ?_clear_screen 0501  
               __end_of_print_title 054A                         ??_dfm_write 051C  
                          isa$xinst 000000                         ??_bios_menu 053A  
                       ??_clock_set 0519                            _vfprintf 0F1C  
                         printf@fmt 0596                 __end_of_text_colour 142C  
                       dfm_read@adr 0519                  __end_of_uart1_init 07FE  
              dfm_write@GIEBitValue 051F                         _NVMCON0bits 000040  
                       _NVMCON1bits 000041                    load_settings@adr 0523  
                  ??_bios_menu_baud 053A                  __end_of_reset_init 1360  
                          intlevel1 0000                            intlevel2 0000  
                          islower@c 0501                       ?_bios_waiting 0501  
             __end_of_CLC1_vect_isr 0A12                      ??_clear_screen 053A  
                     ??_system_init 051A                            printf@ap 059C  
                       ??_vfpfcnvrt 0535                     ??_bios_menu_top 053A  
                    _interrupt_init 10F6             _peripheral_disable_init 13DC  
                          toupper@c 0507                      ??_bios_waiting 059E  
                   _oscillator_init 13F8                         _print_title 0408  
                       _text_colour 1414  
